******************************************************************************
               TMS320C6x Linker PC v7.4.8                      
******************************************************************************
>> Linked Mon Sep 12 08:13:45 2016

OUTPUT FILE NAME:   <avsk_app_dsp_debug.xe674>
ENTRY POINT SYMBOL: "ti_sysbios_family_c64p_Hwi0"  address: 86d8a400


MEMORY CONFIGURATION

         name            origin    length      used     unused   attr    fill
----------------------  --------  ---------  --------  --------  ----  --------
  VECS_CORE_0           00000000   00000400  00000000  00000400  RW X
  VECS_CORE_1           00000400   00000600  00000000  00000600  RW X
  L2_SRAM               00001000   0003f000  00000000  0003f000  RW X
  DSP_L2RAM             00800000   00010000  00000000  00010000  RW X
  DSP_L2DATA            00810000   00010000  00000000  00010000  RW X
  OCMC_RAM0             40300000   0007fe00  00000000  0007fe00  RW X
  DSP_SYNC_AREA         4037fe00   00000100  00000000  00000100  RW X
  OCMC_RAM1             40400000   00040000  00000000  00040000  RW X
  DSP_WMEM              42840200   00007e00  00000000  00007e00  RW X
  DSP_IMEMLA            42850000   00004000  00000000  00004000  RW X
  DSP_IMEMHA            42854000   00004000  00000000  00004000  RW X
  DSP_IMEMLB            42870000   00004000  00000000  00004000  RW X
  DSP_IMEMHB            42874000   00004000  00000000  00004000  RW X
  CONFIG_REGISTER_SPACE 42878000   167a8000  00000000  167a8000  RW X
  DSP_MAIL_EMEM         59020000   00000500  00000000  00000500  RW X
  CONFIG_REGISTER_SPACE 59020500   06fdfb00  00000000  06fdfb00  RW X
  TILER_SYSTEM_SPACE    60000000   20000000  00000000  20000000  RW X
  SHARED_CTRL           80000000   01000000  00000000  01000000  RW X
  SHARED_FRAME_BUFFER   81800000   03f00000  03f00000  00000000  RW X
  SHARED_MEM            85b00000   00100000  00100000  00000000  RW X
  CODE_CORE_DSP         85c00000   01000000  0000010c  00fffef4  RW X
  PRIVATE_DATA_CORE_DSP 86c00000   00400000  0019da02  002625fe  RW X
  DSP_HEAP              87000000   00200000  00100000  00100000  RW X
  SHARED_LOG_MEM        8ff00000   00090000  00000000  00090000  RW X


SEGMENT ALLOCATION MAP

run origin  load origin   length   init length attrs members
----------  ----------- ---------- ----------- ----- -------
85c00000    85c00000    000000c0   000000c0    r-x
  85c00000    85c00000    000000c0   000000c0    r-x boot
85c00400    85c00400    0000004c   0000004c    r--
  85c00400    85c00400    0000004c   0000004c    r-- ti_sdo_ipc_init
86c00000    86c00000    000c68b0   00000000    rw-
  86c00000    86c00000    000c68b0   00000000    rw- .far
86cc68b0    86cc68b0    00000010   00000010    rw-
  86cc68b0    86cc68b0    00000010   00000010    rw- .fardata.1
86cc68c0    86cc68c0    0005de40   0005de40    r-x
  86cc68c0    86cc68c0    0005de40   0005de40    r-x .text
86d24700    86d24700    00053984   00053984    rw-
  86d24700    86d24700    00053984   00053984    rw- .fardata.2
86d78088    86d78088    00012256   00012256    r--
  86d78088    86d78088    00012256   00012256    r-- .const
86d8a2e0    86d8a2e0    00000120   00000000    rw-
  86d8a2e0    86d8a2e0    00000120   00000000    rw- .cio
86d8a400    86d8a400    000002e4   000002e4    r-x
  86d8a400    86d8a400    00000200   00000200    r-x .vecs
  86d8a600    86d8a600    000000e4   000000e4    r-- .switch
86d8b000    86d8b000    0000f316   0000f316    rw-
  86d8b000    86d8b000    0000f0f8   0000f0f8    rw- .bss
  86d9a0f8    86d9a0f8    0000021e   0000021e    rw- .neardata
86d9a318    86d9a318    0000000c   0000000c    r--
  86d9a318    86d9a318    0000000c   0000000c    r-- .rodata
86d9a328    86d9a328    00004000   00000000    rw-
  86d9a328    86d9a328    00004000   00000000    rw- .stack
87000000    87000000    00100000   00000000    rw-
  87000000    87000000    00100000   00000000    rw- .myNonCacheHeap


SECTION ALLOCATION MAP

 output                                  attributes/
section   page    origin      length       input sections
--------  ----  ----------  ----------   ----------------
.cinit     0    86c00000    00000000     UNINITIALIZED

.init_array 
*          0    86c00000    00000000     UNINITIALIZED

ti.sdo.ipc.SharedRegion_1 
*          0    81800000    03f00000     NOLOAD SECTION
                  81800000    03f00000     --HOLE--

ti.sdo.ipc.SharedRegion_0 
*          0    85b00000    00100000     NOLOAD SECTION
                  85b00000    00100000     --HOLE--

boot       0    85c00000    000000c0     
                  85c00000    000000a0     boot.ae674 : boot.oe674 (.text:_c_int00)
                  85c000a0    00000020     BIOS_AVSDK_dsp_pe674.oe674 ($Tramp$S$$xdc_runtime_Startup_reset__I)

ti_sdo_ipc_init 
*          0    85c00400    0000004c     
                  85c00400    0000004c     BIOS_AVSDK_dsp_pe674.oe674 (ti_sdo_ipc_init)

xdc.meta   0    86c00000    00000150     COPY SECTION
                  86c00000    00000150     BIOS_AVSDK_dsp_pe674.oe674 (xdc.meta)

.far       0    86c00000    000c68b0     UNINITIALIZED
                  86c00000    0009e1b0     dsp_app_task.obj (.far)
                  86c9e1b0    0000df38     edma3_lld_drv.ae674 : edma3_drv_init.oe674 (.far)
                  86cac0e8    00008800     BIOS_AVSDK_dsp_pe674.oe674 (.far:taskStackSection)
                  86cb48e8    00007a28     edma3_lld_rm.ae674 : edma3resmgr.oe674 (.far)
                  86cbc310    000042e0                        : edma3_rm_gbl_data.oe674 (.far)
                  86cc05f0    00004058     BIOS_AVSDK_dsp_pe674.oe674 (.far)
                  86cc4648    0000211d     ti_srv_lib.lib : ti_srv_lib.obj (.far)
                  86cc6765    00000003     --HOLE--
                  86cc6768    00000140     rts6740_elf.lib : defs.obj (.far)
                  86cc68a8    00000008                     : trgdrv.obj (.far)

.fardata.1 
*          0    86cc68b0    00000010     
                  86cc68b0    00000010     BIOS_AVSDK_dsp_pe674.oe674 (.fardata:ti_sdo_ipc_Notify_Module_State_0_notifyHandles__A)

.text      0    86cc68c0    0005de40     
                  86cc68c0    0000f500     ti_srv_lib.lib : SV_GAlign_Run.obj (.text)
                  86cd5dc0    00005360     dsp_app_task.obj (.text)
                  86cdb120    000035e0     ti_srv_lib.lib : ti_srv_lib.obj (.text)
                  86cde700    00003380                    : SV_PAlign_Run.obj (.text)
                  86ce1a80    00001c40                    : SV_Synthesis_Run.obj (.text)
                  86ce36c0    00001780                    : iPhotometricAlignmentAlgo.obj (.text)
                  86ce4e40    000013e0                    : iSynthesisAlgo.obj (.text)
                  86ce6220    00001240                    : cse.obj (.text)
                  86ce7460    000011a0     ipc.ae674 : Ipc.obj (.text:ti_sdo_ipc_GateMP_Instance_init__F)
                  86ce8600    00001020     edma_helper_funcs.obj (.text)
                  86ce9620    00001000     ti_srv_lib.lib : iGeometricAlignmentAlgo.obj (.text)
                  86cea620    00000c40     edma3_lld_drv.ae674 : edma3_drv_basic.oe674 (.text:EDMA3_DRV_requestChannel)
                  86ceb260    00000b80     edma3_lld_rm.ae674 : edma3resmgr.oe674 (.text:EDMA3_RM_allocResource)
                  86cebde0    00000b20     ipc.ae674 : Ipc.obj (.text:ti_sdo_ipc_heaps_HeapMemMP_alloc__E)
                  86cec900    00000a60               : Ipc.obj (.text:ti_sdo_ipc_heaps_HeapMemMP_free__E)
                  86ced360    000009c0               : Ipc.obj (.text:Ipc_attach)
                  86cedd20    000009a0     ti.targets.rts6000.ae674 : System.oe674 (.text:xdc_runtime_System_doPrint__I)
                  86cee6c0    00000960     spansion.obj (.text)
                  86cef020    00000920     ipc.ae674 : Ipc.obj (.text:ti_sdo_ipc_transports_TransportShm_Instance_init__F)
                  86cef940    000008c0               : Ipc.obj (.text:ti_sdo_ipc_ListMP_Instance_init__F)
                  86cf0200    00000880               : Ipc.obj (.text:ti_sdo_ipc_GateMP_Instance_finalize__F)
                  86cf0a80    00000840               : Ipc.obj (.text:MessageQ_put)
                  86cf12c0    000007e0               : Ipc.obj (.text:ti_sdo_ipc_heaps_HeapBufMP_Instance_init__F)
                  86cf1aa0    000007e0               : Ipc.obj (.text:ti_sdo_ipc_heaps_HeapBufMP_postInit__I)
                  86cf2280    000007e0     winbond.obj (.text)
                  86cf2a60    00000780     omap3_spi.obj (.text)
                  86cf31e0    00000780     sysbios.ae674 : BIOS.obj (.text:ti_sysbios_family_c64p_Exception_handler__I)
                  86cf3960    00000760     ipc.ae674 : Ipc.obj (.text:ti_sdo_ipc_heaps_HeapMemMP_Instance_init__F)
                  86cf40c0    00000720     edma3_lld_rm.ae674 : edma3resmgr.oe674 (.text:edma3CCErrHandler)
                  86cf47e0    000006a0     ipc.ae674 : Ipc.obj (.text:NameServer_add)
                  86cf4e80    000006a0               : Ipc.obj (.text:ti_sdo_ipc_nsremote_NameServerRemoteNotify_Instance_init__F)
                  86cf5520    00000660     sysbios.ae674 : BIOS.obj (.text:ti_sysbios_heaps_HeapMem_alloc__E)
                  86cf5b80    00000620     ipc.ae674 : Ipc.obj (.text:Notify_sendEvent)
                  86cf61a0    00000600               : Ipc.obj (.text:ti_sdo_ipc_SharedRegion_start__F)
                  86cf67a0    00000600     sysbios.ae674 : BIOS.obj (.text:ti_sysbios_heaps_HeapMem_free__E)
                  86cf6da0    000005e0     edma3_lld_rm.ae674 : edma3resmgr.oe674 (.text:EDMA3_RM_open)
                  86cf7380    000005e0     ipc.ae674 : Ipc.obj (.text:Notify_registerEventSingle)
                  86cf7960    000005e0               : Ipc.obj (.text:Notify_unregisterEventSingle)
                  86cf7f40    000005e0               : Ipc.obj (.text:SharedRegion_setEntry)
                  86cf8520    000005c0               : Ipc.obj (.text:ListMP_getHead)
                  86cf8ae0    000005c0     rts6740_elf.lib : _printfi.obj (.text:_getarg_diouxp)
                  86cf90a0    000005c0     spi_flash.obj (.text)
                  86cf9660    000005a0     rts6740_elf.lib : divd.obj (.text:__c6xabi_divd)
                  86cf9c00    000005a0     remote_debug_server.obj (.text)
                  86cfa1a0    00000580     ipc.ae674 : Ipc.obj (.text:ti_sdo_ipc_transports_TransportShm_put__E)
                  86cfa720    00000580     sysbios.ae674 : BIOS.obj (.text:ti_sysbios_knl_Task_Instance_finalize__F)
                  86cfaca0    00000560     ipc.ae674 : Ipc.obj (.text:NameServer_get)
                  86cfb200    00000540               : Ipc.obj (.text:ti_sdo_ipc_Ipc_procSyncStart__I)
                  86cfb740    00000540               : Ipc.obj (.text:ti_sdo_ipc_nsremote_NameServerRemoteNotify_get__F)
                  86cfbc80    00000500               : Ipc.obj (.text:ti_sdo_ipc_notifyDrivers_NotifyDriverShm_Instance_init__F)
                  86cfc180    00000500     sysbios.ae674 : BIOS.obj (.text:ti_sysbios_utils_Load_update__E)
                  86cfc680    000004c0     ipc.ae674 : Ipc.obj (.text:ti_sdo_ipc_heaps_HeapMemMP_getStats__E)
                  86cfcb40    000004c0     sysbios.ae674 : BIOS.obj (.text:ti_sysbios_knl_Semaphore_pend__E)
                  86cfd000    000004a0     ipc.ae674 : Ipc.obj (.text:HeapBufMP_sharedMemReq)
                  86cfd4a0    000004a0               : Ipc.obj (.text:ti_sdo_ipc_gates_GatePeterson_Instance_init__F)
                  86cfd940    00000480               : Ipc.obj (.text:ti_sdo_ipc_GateMP_setRegion0Reserved__F)
                  86cfddc0    00000480               : Ipc.obj (.text:ti_sdo_ipc_family_c6a8149_InterruptDsp_intRegister__E)
                  86cfe240    00000480               : Ipc.obj (.text:ti_sdo_ipc_nsremote_NameServerRemoteNotify_swiFxn__I)
                  86cfe6c0    00000480     sysbios.ae674 : BIOS.obj (.text:ti_sysbios_knl_Task_Module_startup__F)
                  86cfeb40    00000460     ipc.ae674 : Ipc.obj (.text:ListMP_putTail)
                  86cfefa0    00000460     rts6740_elf.lib : _printfi.obj (.text:_printfi)
                  86cff400    00000460                     : _printfi.obj (.text:_setfield)
                  86cff860    00000460     ipc.ae674 : Ipc.obj (.text:ti_sdo_ipc_Ipc_procSyncFinish__I)
                  86cffcc0    00000440     edma3_lld_rm.ae674 : edma3resmgr.oe674 (.text:edma3TCErrHandler)
                  86d00100    00000440     ipc.ae674 : Ipc.obj (.text:ti_sdo_ipc_MessageQ_Instance_init__F)
                  86d00540    00000420     edma3_lld_rm.ae674 : edma3resmgr.oe674 (.text:EDMA3_RM_freeResource)
                  86d00960    00000420     ipc.ae674 : Ipc.obj (.text:ti_sdo_ipc_heaps_HeapMemMP_postInit__I)
                  86d00d80    00000400     shared_mem_cfg.obj (.text)
                  86d01180    00000400     ipc.ae674 : Ipc.obj (.text:ti_sdo_ipc_Notify_Instance_init__F)
                  86d01580    00000400     sysbios.ae674 : BIOS.obj (.text:ti_sysbios_family_c64p_Hwi_dispatchC__I)
                  86d01980    00000400                   : BIOS.obj (.text:ti_sysbios_utils_Load_logLoads__I)
                  86d01d80    000003c0     ipc.ae674 : Ipc.obj (.text:ti_sdo_ipc_SharedRegion_reserveMemory__F)
                  86d02140    000003c0     sysbios.ae674 : BIOS.obj (.text:ti_sysbios_knl_Task_Instance_init__F)
                  86d02500    000003c0                   : BIOS.obj (.text:ti_sysbios_knl_Task_setPri__E)
                  86d028c0    000003a0     rts6740_elf.lib : fputs.obj (.text:fputs)
                  86d02c60    00000380     ipc.ae674 : Ipc.obj (.text:HeapMemMP_sharedMemReq)
                  86d02fe0    00000380               : Ipc.obj (.text:SharedRegion_clearEntry)
                  86d03360    00000380     sysbios.ae674 : BIOS.obj (.text:ti_sysbios_timers_dmtimer_Timer_checkFreq__I)
                  86d036e0    00000360     edma3_lld_rm.ae674 : edma3resmgr.oe674 (.text:EDMA3_RM_create)
                  86d03a40    00000360     ipc.ae674 : Ipc.obj (.text:SharedRegion_getPtr)
                  86d03da0    00000360     command_queue.obj (.text)
                  86d04100    00000360     sysbios.ae674 : BIOS.obj (.text:ti_sysbios_knl_Clock_Instance_init__F)
                  86d04460    00000340     ipc.ae674 : Ipc.obj (.text:GateMP_sharedMemReq)
                  86d047a0    00000340     sysbios.ae674 : BIOS.obj (.text:deviceConfig$30)
                  86d04ae0    00000320     ipc.ae674 : Ipc.obj (.text:HeapBufMP_open)
                  86d04e00    00000320     rts6740_elf.lib : _printfi.obj (.text:_pproc_fge)
                  86d05120    00000300     edma3_lld_drv.ae674 : edma3_drv_basic.oe674 (.text:EDMA3_DRV_freeChannel)
                  86d05420    00000300     ipc.ae674 : Ipc.obj (.text:GateMP_openByAddr)
                  86d05720    00000300               : Ipc.obj (.text:ti_sdo_ipc_transports_TransportShm_openByAddr__F)
                  86d05a20    00000300     sysbios.ae674 : BIOS.obj (.text:ti_sysbios_knl_Swi_run__I)
                  86d05d20    000002e0     ipc.ae674 : Ipc.obj (.text:MessageQ_alloc)
                  86d06000    000002e0               : Ipc.obj (.text:SharedRegion_getEntry)
                  86d062e0    000002e0               : Ipc.obj (.text:SharedRegion_getSRPtr)
                  86d065c0    000002e0     rts6740_elf.lib : _printfi.obj (.text:_pproc_fwp)
                  86d068a0    000002e0     ipc.ae674 : Ipc.obj (.text:ti_sdo_ipc_heaps_HeapBufMP_free__E)
                  86d06b80    000002e0               : Ipc.obj (.text:ti_sdo_ipc_notifyDrivers_NotifyDriverShm_isr__I)
                  86d06e60    000002e0     sysbios.ae674 : BIOS.obj (.text:ti_sysbios_gates_GateMutexPri_enter__E)
                  86d07140    000002e0                   : BIOS.obj (.text:ti_sysbios_heaps_HeapMem_Instance_init__F)
                  86d07420    000002e0                   : BIOS.obj (.text:ti_sysbios_knl_Task_sleep__E)
                  86d07700    000002c0     edma3_lld_drv.ae674 : edma3_drv_init.oe674 (.text:EDMA3_DRV_open)
                  86d079c0    000002c0     ipc.ae674 : Ipc.obj (.text:Ipc_writeConfig)
                  86d07c80    000002c0               : Ipc.obj (.text:MessageQ_open)
                  86d07f40    000002c0               : Ipc.obj (.text:ti_sdo_ipc_gates_GateHWSpinlock_Instance_init__F)
                  86d08200    000002a0               : Ipc.obj (.text:Ipc_start)
                  86d084a0    000002a0               : Ipc.obj (.text:NameServer_getLocal)
                  86d08740    000002a0     rts6740_elf.lib : _printfi.obj (.text:ecvt)
                  86d089e0    000002a0     edma3_lld_rm.ae674 : edma3resmgr.oe674 (.text:edma3ComplHandler)
                  86d08c80    000002a0     edma3_lld_drv.ae674 : edma3_drv_init.oe674 (.text:edma3OpenResMgr)
                  86d08f20    000002a0     rts6740_elf.lib : _printfi.obj (.text:fcvt)
                  86d091c0    000002a0     ipc.ae674 : Ipc.obj (.text:ti_sdo_ipc_heaps_HeapBufMP_Instance_finalize__F)
                  86d09460    000002a0     sysbios.ae674 : BIOS.obj (.text:ti_sysbios_knl_Clock_workFunc__E)
                  86d09700    000002a0                   : BIOS.obj (.text:ti_sysbios_timers_dmtimer_Timer_setPeriodMicroSecs__E)
                  86d099a0    00000280     edma3_lld_drv.ae674 : edma3_drv_init.oe674 (.text:EDMA3_DRV_create)
                  86d09c20    00000280                         : edma3_drv_basic.oe674 (.text:EDMA3_DRV_disableTransfer)
                  86d09ea0    00000280     rts6740_elf.lib : divf.obj (.text:__c6xabi_divf)
                  86d0a120    00000280     edma3_lld_drv.ae674 : edma3_drv_basic.oe674 (.text:edma3RemoveMapping)
                  86d0a3a0    00000280     rts6740_elf.lib : sin.obj (.text:sin)
                  86d0a620    00000280     sysbios.ae674 : BIOS.obj (.text:ti_sysbios_family_c64p_Cache_Module_startup__F)
                  86d0a8a0    00000280                   : BIOS.obj (.text:ti_sysbios_family_c64p_Hwi_Module_startup__F)
                  86d0ab20    00000280                   : BIOS.obj (.text:ti_sysbios_timers_dmtimer_Timer_startup__E)
                  86d0ada0    00000280     ti.targets.rts6000.ae674 : Core-mem.oe674 (.text:xdc_runtime_Core_createObject__I)
                  86d0b020    00000280                              : Error.oe674 (.text:xdc_runtime_Error_raiseX__F)
                  86d0b2a0    00000280     BIOS_AVSDK_dsp_pe674.oe674 (.text:xdc_runtime_System_printfExtend__I)
                  86d0b520    00000260     edma3_lld_drv.ae674 : edma3_drv_basic.oe674 (.text:EDMA3_DRV_enableTransfer)
                  86d0b780    00000260     ipc.ae674 : Ipc.obj (.text:ListMP_sharedMemReq)
                  86d0b9e0    00000260     rts6740_elf.lib : imath64.obj (.text:__c6xabi_divull)
                  86d0bc40    00000260                     : _printfi.obj (.text:_pconv_e)
                  86d0bea0    00000260     ipc.ae674 : Ipc.obj (.text:ti_sdo_ipc_ListMP_Instance_finalize__F)
                  86d0c100    00000260               : Ipc.obj (.text:ti_sdo_ipc_SharedRegion_checkOverlap__I)
                  86d0c360    00000260               : Ipc.obj (.text:ti_sdo_ipc_heaps_HeapMemMP_Instance_finalize__F)
                  86d0c5c0    00000260               : Ipc.obj (.text:ti_sdo_ipc_notifyDrivers_NotifyDriverShm_disableEvent__E)
                  86d0c820    00000260               : Ipc.obj (.text:ti_sdo_ipc_notifyDrivers_NotifyDriverShm_sharedMemReq__F)
                  86d0ca80    00000260     sysbios.ae674 : BIOS.obj (.text:ti_sysbios_family_c64p_Hwi_reconfig__E)
                  86d0cce0    00000260                   : BIOS.obj (.text:ti_sysbios_knl_Swi_Module_startup__F)
                  86d0cf40    00000260                   : BIOS.obj (.text:ti_sysbios_utils_Load_taskCreateHook__E)
                  86d0d1a0    00000260     ti.targets.rts6000.ae674 : Startup.oe674 (.text:xdc_runtime_Startup_startMods__I)
                  86d0d400    00000240     rts6740_elf.lib : _printfi.obj (.text:_pproc_diouxp)
                  86d0d640    00000240     ipc.ae674 : Ipc.obj (.text:ti_sdo_ipc_MessageQ_Instance_finalize__F)
                  86d0d880    00000240               : Ipc.obj (.text:ti_sdo_ipc_family_c6a8149_InterruptDsp_intUnregister__E)
                  86d0dac0    00000240     sysbios.ae674 : BIOS.obj (.text:ti_sysbios_family_c64p_Exception_internalHandler__I)
                  86d0dd00    00000240                   : BIOS.obj (.text:ti_sysbios_knl_Semaphore_post__E)
                  86d0df40    00000220     ipc.ae674 : Ipc.obj (.text:MessageQ_get)
                  86d0e160    00000220     rts6740_elf.lib : _printfi.obj (.text:_pproc_str)
                  86d0e380    00000220                     : fputc.obj (.text:fputc)
                  86d0e5a0    00000220     ipc.ae674 : Ipc.obj (.text:ti_sdo_ipc_GateMP_start__F)
                  86d0e7c0    00000220               : Ipc.obj (.text:ti_sdo_ipc_transports_TransportShm_Instance_finalize__F)
                  86d0e9e0    00000220     sysbios.ae674 : BIOS.obj (.text:ti_sysbios_knl_Task_exit__E)
                  86d0ec00    00000220                   : BIOS.obj (.text:ti_sysbios_knl_Task_schedule__I)
                  86d0ee20    00000220                   : BIOS.obj (.text:ti_sysbios_knl_Task_startCore__E)
                  86d0f040    00000200     ipc.ae674 : Ipc.obj (.text:GateMP_enter)
                  86d0f240    00000200               : Ipc.obj (.text:GateMP_leave)
                  86d0f440    00000200               : Ipc.obj (.text:ListMP_openByAddr)
                  86d0f640    00000200     rts6740_elf.lib : _printfi.obj (.text:_pconv_g)
                  86d0f840    00000200     sysbios.ae674 : c64p_Hwi_disp_always.obj (.text:_ti_sysbios_family_c64p_Hwi_dispatchAlways)
                  86d0fa40    00000200     rts6740_elf.lib : setvbuf.obj (.text:setvbuf)
                  86d0fc40    00000200     ipc.ae674 : Ipc.obj (.text:ti_sdo_ipc_family_c6a8149_NotifySetup_attach__E)
                  86d0fe40    00000200               : Ipc.obj (.text:ti_sdo_ipc_notifyDrivers_NotifyDriverShm_sendEvent__E)
                  86d10040    00000200     sysbios.ae674 : BIOS.obj (.text:ti_sysbios_family_c64p_Cache_inv__E)
                  86d10240    00000200                   : BIOS.obj (.text:ti_sysbios_family_c64p_Cache_wbInv__E)
                  86d10440    00000200                   : BIOS.obj (.text:ti_sysbios_gates_GateMutex_enter__E)
                  86d10640    00000200                   : BIOS.obj (.text:ti_sysbios_knl_Swi_Instance_init__F)
                  86d10840    00000200                   : BIOS.obj (.text:ti_sysbios_timers_dmtimer_Timer_start__E)
                  86d10a40    000001e0     edma3_lld_drv_sample.ae674 : sample_init.oe674 (.text:edma3init)
                  86d10c20    000001e0     ipc.ae674 : Ipc.obj (.text:ti_sdo_ipc_GateMP_attach__F)
                  86d10e00    000001e0               : Ipc.obj (.text:ti_sdo_ipc_GateMP_getFreeResource__I)
                  86d10fe0    000001e0               : Ipc.obj (.text:ti_sdo_ipc_heaps_HeapBufMP_alloc__E)
                  86d111c0    000001e0     sysbios.ae674 : BIOS.obj (.text:ti_sysbios_family_c64p_Hwi_Instance_init__F)
                  86d113a0    000001e0                   : BIOS.obj (.text:ti_sysbios_knl_Task_postInit__I)
                  86d11580    000001e0                   : BIOS.obj (.text:ti_sysbios_utils_Load_idleFxn__E)
                  86d11760    000001e0                   : BIOS.obj (.text:ti_sysbios_utils_Load_taskDeleteHook__E)
                  86d11940    000001c0     edma3_lld_rm.ae674 : edma3resmgr.oe674 (.text:EDMA3_RM_close)
                  86d11b00    000001c0     rts6740_elf.lib : _printfi.obj (.text:_mcpy)
                  86d11cc0    000001c0                     : fopen.obj (.text:_openfile)
                  86d11e80    000001c0     ipc.ae674 : Ipc.obj (.text:ti_sdo_ipc_notifyDrivers_NotifyDriverShm_registerEvent__E)
                  86d12040    000001c0     sysbios.ae674 : BIOS.obj (.text:ti_sysbios_knl_Swi_Instance_finalize__F)
                  86d12200    000001c0                   : BIOS.obj (.text:ti_sysbios_knl_Swi_post__E)
                  86d123c0    000001a0     ipc.ae674 : Ipc.obj (.text:HeapBufMP_openByAddr)
                  86d12560    000001a0               : Ipc.obj (.text:HeapMemMP_openByAddr)
                  86d12700    000001a0               : Ipc.obj (.text:SharedRegion_entryInit)
                  86d128a0    000001a0               : Ipc.obj (.text:SharedRegion_getCacheLineSize)
                  86d12a40    000001a0               : Ipc.obj (.text:SharedRegion_getHeap)
                  86d12be0    000001a0               : Ipc.obj (.text:SharedRegion_isCacheEnabled)
                  86d12d80    000001a0     rts6740_elf.lib : imath40.obj (.text:__c6xabi_divul)
                  86d12f20    000001a0                     : atan.obj (.text:atan)
                  86d130c0    000001a0     edma3_lld_rm.ae674 : edma3resmgr.oe674 (.text:edma3GlobalRegionInit)
                  86d13260    000001a0     ipc.ae674 : Ipc.obj (.text:ti_sdo_ipc_GateMP_openRegion0Reserved__F)
                  86d13400    000001a0               : Ipc.obj (.text:ti_sdo_ipc_family_c6a8149_InterruptDsp_intDisable__E)
                  86d135a0    000001a0               : Ipc.obj (.text:ti_sdo_ipc_family_c6a8149_InterruptDsp_intEnable__E)
                  86d13740    000001a0               : Ipc.obj (.text:ti_sdo_ipc_gates_GateHWSpinlock_enter__E)
                  86d138e0    000001a0               : Ipc.obj (.text:ti_sdo_ipc_notifyDrivers_NotifyDriverShm_enableEvent__E)
                  86d13a80    000001a0               : Ipc.obj (.text:ti_sdo_ipc_nsremote_NameServerRemoteNotify_attach__E)
                  86d13c20    000001a0     sysbios.ae674 : BIOS.obj (.text:ti_sysbios_family_c64p_Hwi_Instance_finalize__F)
                  86d13dc0    000001a0                   : BIOS.obj (.text:ti_sysbios_knl_Task_unblockI__E)
                  86d13f60    00000180     edma3_lld_rm.ae674 : edma3resmgr.oe674 (.text:EDMA3_RM_registerTccCb)
                  86d140e0    00000180     rts6740_elf.lib : trgdrv.obj (.text:HOSTrename)
                  86d14260    00000180     ipc.ae674 : Ipc.obj (.text:MultiProc_getName)
                  86d143e0    00000180               : Ipc.obj (.text:Notify_intLineRegistered)
                  86d14560    00000180     rts6740_elf.lib : lowlev.obj (.text:open)
                  86d146e0    00000180     edma3_lld_drv_sample.ae674 : sample_ti814x_int_reg.oe674 (.text:registerEdma3Interrupts)
                  86d14860    00000180     sysbios.ae674 : c64p_Exception_asm.obj (.text)
                  86d149e0    00000180     ipc.ae674 : Ipc.obj (.text:ti_sdo_ipc_MessageQ_registerTransport__F)
                  86d14b60    00000180               : Ipc.obj (.text:ti_sdo_ipc_MessageQ_unregisterTransport__F)
                  86d14ce0    00000180               : Ipc.obj (.text:ti_sdo_ipc_Notify_Module_startup__F)
                  86d14e60    00000180               : Ipc.obj (.text:ti_sdo_ipc_gates_GatePeterson_enter__E)
                  86d14fe0    00000180               : Ipc.obj (.text:ti_sdo_ipc_notifyDrivers_NotifyDriverShm_unregisterEvent__E)
                  86d15160    00000180               : Ipc.obj (.text:ti_sdo_utils_NameServer_Module_startup__F)
                  86d152e0    00000180     sysbios.ae674 : BIOS.obj (.text:ti_sysbios_knl_Swi_schedule__I)
                  86d15460    00000180                   : BIOS.obj (.text:ti_sysbios_syncs_SyncSem_Instance_init__F)
                  86d155e0    00000180     ti.targets.rts6000.ae674 : Text.oe674 (.text:xdc_runtime_Text_putSite__F)
                  86d15760    00000160     edma3_lld_drv.ae674 : edma3_drv_init.oe674 (.text:EDMA3_DRV_close)
                  86d158c0    00000160     edma3_lld_rm.ae674 : edma3resmgr.oe674 (.text:EDMA3_RM_unregisterTccCb)
                  86d15a20    00000160     ipc.ae674 : Ipc.obj (.text:Notify_attach)
                  86d15b80    00000160     edma3_lld_rm.ae674 : edma3resmgr.oe674 (.text:edma3ShadowRegionInit)
                  86d15ce0    00000160     sysbios.ae674 : BIOS.obj (.text:rtsUnlock$0)
                  86d15e40    00000160     rts6740_elf.lib : sqrt.obj (.text:sqrt)
                  86d15fa0    00000160     ipc.ae674 : Ipc.obj (.text:ti_sdo_ipc_GateMP_createLocal__F)
                  86d16100    00000160               : Ipc.obj (.text:ti_sdo_ipc_gates_GateHWSpinlock_Module_startup__F)
                  86d16260    00000160               : Ipc.obj (.text:ti_sdo_utils_NameServer_isRegistered__E)
                  86d163c0    00000160               : Ipc.obj (.text:ti_sdo_utils_NameServer_registerRemoteDriver__E)
                  86d16520    00000160               : Ipc.obj (.text:ti_sdo_utils_NameServer_unregisterRemoteDriver__E)
                  86d16680    00000160     ti_srv_lib.lib : SV_Global_Creation.obj (.text)
                  86d167e0    00000160     sysbios.ae674 : BIOS.obj (.text:ti_sysbios_knl_Task_yield__E)
                  86d16940    00000140     edma3_lld_drv.ae674 : edma3_drv_adv.oe674 (.text:EDMA3_DRV_setPaRAM)
                  86d16a80    00000140     ipc.ae674 : Ipc.obj (.text:GateMP_close)
                  86d16bc0    00000140               : Ipc.obj (.text:MessageQ_registerHeap)
                  86d16d00    00000140     boot.ae674 : autoinit.oe674 (.text:_auto_init_elf)
                  86d16e40    00000140     rts6740_elf.lib : _printfi.obj (.text:_pproc_fflags)
                  86d16f80    00000140                     : lowlev.obj (.text:getdevice)
                  86d170c0    00000140     ipc.ae674 : Ipc.obj (.text:ti_sdo_ipc_Notify_exec__F)
                  86d17200    00000140               : Ipc.obj (.text:ti_sdo_ipc_family_c6a8149_InterruptDsp_intShmStub__I)
                  86d17340    00000140               : Ipc.obj (.text:ti_sdo_ipc_transports_TransportShm_sharedMemReq__F)
                  86d17480    00000140     sysbios.ae674 : BIOS.obj (.text:ti_sysbios_gates_GateSwi_enter__E)
                  86d175c0    00000140                   : BIOS.obj (.text:ti_sysbios_knl_Clock_Instance_finalize__F)
                  86d17700    00000140                   : BIOS.obj (.text:ti_sysbios_knl_Semaphore_Instance_init__F)
                  86d17840    00000140                   : BIOS.obj (.text:ti_sysbios_knl_Task_blockI__E)
                  86d17980    00000120     edma3_lld_drv.ae674 : edma3_drv_basic.oe674 (.text:EDMA3_DRV_clearErrorBits)
                  86d17aa0    00000120     ipc.ae674 : Ipc.obj (.text:MessageQ_unregisterHeap)
                  86d17bc0    00000120     rts6740_elf.lib : fclose.obj (.text:_closefile)
                  86d17ce0    00000120                     : _printfi.obj (.text:_ltostr)
                  86d17e00    00000120                     : fopen.obj (.text:_search_fp)
                  86d17f20    00000120                     : fseek.obj (.text:fseek)
                  86d18040    00000120     sysbios.ae674 : BIOS.obj (.text:initDevice$30)
                  86d18160    00000120     ipc.ae674 : Ipc.obj (.text:ti_sdo_ipc_MessageQ_Module_startup__F)
                  86d18280    00000120     BIOS_AVSDK_dsp_pe674.oe674 (.text:ti_sdo_ipc_MessageQ_Object__create__S)
                  86d183a0    00000120     BIOS_AVSDK_dsp_pe674.oe674 (.text:ti_sdo_ipc_Notify_Object__create__S)
                  86d184c0    00000120     ipc.ae674 : Ipc.obj (.text:ti_sdo_ipc_gates_GateHWSpinlock_leave__E)
                  86d185e0    00000120     BIOS_AVSDK_dsp_pe674.oe674 (.text:ti_sdo_ipc_gates_GatePeterson_Object__create__S)
                  86d18700    00000120     ipc.ae674 : Ipc.obj (.text:ti_sdo_ipc_nsremote_NameServerRemoteNotify_Instance_finalize__F)
                  86d18820    00000120     BIOS_AVSDK_dsp_pe674.oe674 (.text:ti_sdo_ipc_nsremote_NameServerRemoteNotify_Object__create__S)
                  86d18940    00000120     BIOS_AVSDK_dsp_pe674.oe674 (.text:ti_sdo_ipc_transports_TransportShm_Object__create__S)
                  86d18a60    00000120     BIOS_AVSDK_dsp_pe674.oe674 (.text:ti_sysbios_family_c64p_Hwi_Object__create__S)
                  86d18b80    00000120     BIOS_AVSDK_dsp_pe674.oe674 (.text:ti_sysbios_knl_Swi_Object__create__S)
                  86d18ca0    00000120     BIOS_AVSDK_dsp_pe674.oe674 (.text:ti_sysbios_knl_Task_Object__create__S)
                  86d18dc0    00000120     sysbios.ae674 : BIOS.obj (.text:ti_sysbios_timers_dmtimer_Timer_Module_startup__F)
                  86d18ee0    00000120                   : BIOS.obj (.text:ti_sysbios_xdcruntime_GateThreadSupport_leave__F)
                  86d19000    00000120     ti.targets.rts6000.ae674 : Text.oe674 (.text:xdc_runtime_Text_putLab__F)
                  86d19120    00000100     rts6740_elf.lib : trgdrv.obj (.text:HOSTlseek)
                  86d19220    00000100                     : _io_perm.obj (.text:_wrt_ok)
                  86d19320    00000100                     : fprintf.obj (.text:fprintf)
                  86d19420    00000100     BIOS_AVSDK_dsp_pe674.oe674 (.text:ti_sdo_ipc_GateMP_Object__create__S)
                  86d19520    00000100     BIOS_AVSDK_dsp_pe674.oe674 (.text:ti_sdo_ipc_ListMP_Object__create__S)
                  86d19620    00000100     ipc.ae674 : Ipc.obj (.text:ti_sdo_ipc_Notify_Instance_finalize__F)
                  86d19720    00000100               : Ipc.obj (.text:ti_sdo_ipc_SharedRegion_attach__F)
                  86d19820    00000100               : Ipc.obj (.text:ti_sdo_ipc_SharedRegion_clearReservedMemory__F)
                  86d19920    00000100               : Ipc.obj (.text:ti_sdo_ipc_family_c6a8149_InterruptDsp_intSend__E)
                  86d19a20    00000100               : Ipc.obj (.text:ti_sdo_ipc_gates_GateMPSupportNull_enter__E)
                  86d19b20    00000100               : Ipc.obj (.text:ti_sdo_ipc_gates_GateMPSupportNull_leave__E)
                  86d19c20    00000100     BIOS_AVSDK_dsp_pe674.oe674 (.text:ti_sdo_ipc_heaps_HeapBufMP_Object__create__S)
                  86d19d20    00000100     BIOS_AVSDK_dsp_pe674.oe674 (.text:ti_sdo_ipc_heaps_HeapMemMP_Object__create__S)
                  86d19e20    00000100     BIOS_AVSDK_dsp_pe674.oe674 (.text:ti_sdo_ipc_notifyDrivers_NotifyDriverShm_Object__create__S)
                  86d19f20    00000100     ipc.ae674 : Ipc.obj (.text:ti_sdo_ipc_transports_TransportShmSetup_attach__E)
                  86d1a020    00000100     sysbios.ae674 : BIOS.obj (.text:ti_sysbios_family_c64p_EventCombiner_dispatch__F)
                  86d1a120    00000100                   : BIOS.obj (.text:ti_sysbios_gates_GateMutexPri_leave__E)
                  86d1a220    00000100                   : BIOS.obj (.text:ti_sysbios_knl_Swi_restoreHwi__E)
                  86d1a320    00000100     BIOS_AVSDK_dsp_pe674.oe674 (.text:ti_sysbios_syncs_SyncSem_Object__create__S)
                  86d1a420    00000100     ti.targets.rts6000.ae674 : Core-mem.oe674 (.text:xdc_runtime_Core_deleteObject__I)
                  86d1a520    00000100                              : Startup.oe674 (.text:xdc_runtime_Startup_exec__F)
                  86d1a620    00000100                              : Text.oe674 (.text:xdc_runtime_Text_putMod__F)
                  86d1a720    00000100                              : Text.oe674 (.text:xdc_runtime_Text_visitRope2__I)
                  86d1a820    00000100     BIOS_AVSDK_dsp_pe674.oe674 (.text:xdc_runtime_knl_GateThread_Object__create__S)
                  86d1a920    000000e0     edma3_lld_drv.ae674 : edma3_drv_init.oe674 (.text:EDMA3_DRV_delete)
                  86d1aa00    000000e0     rts6740_elf.lib : trgdrv.obj (.text:HOSTopen)
                  86d1aae0    000000e0     ipc.ae674 : Ipc.obj (.text:HeapBufMP_create)
                  86d1abc0    000000e0     rts6740_elf.lib : fltllif.obj (.text:__c6xabi_fltllif)
                  86d1aca0    000000e0                     : divi.obj (.text:__divi)
                  86d1ad80    000000e0                     : atoi.obj (.text:atoi)
                  86d1ae60    000000e0                     : lowlev.obj (.text:close)
                  86d1af40    000000e0     edma3_lld_drv_sample.ae674 : sample_cs.oe674 (.text:edma3OsProtectEntry)
                  86d1b020    000000e0     rts6740_elf.lib : fflush.obj (.text:fflush)
                  86d1b100    000000e0                     : ltoa.obj (.text:ltoa)
                  86d1b1e0    000000e0                     : memset.obj (.text:memset)
                  86d1b2c0    000000e0                     : printf.obj (.text:printf)
                  86d1b3a0    000000e0     ipc.ae674 : Ipc.obj (.text:ti_sdo_ipc_family_c6a8149_InterruptDsp_intClear__E)
                  86d1b480    000000e0               : Ipc.obj (.text:ti_sdo_ipc_family_c6a8149_NotifySetup_sharedMemReq__E)
                  86d1b560    000000e0               : Ipc.obj (.text:ti_sdo_ipc_heaps_HeapBufMP_getStats__F)
                  86d1b640    000000e0     sysbios.ae674 : BIOS.obj (.text:ti_sysbios_utils_Load_hwiBeginHook__E)
                  86d1b720    000000e0     ti.targets.rts6000.ae674 : Error.oe674 (.text:xdc_runtime_Error_print__F)
                  86d1b800    000000e0                              : Memory.oe674 (.text:xdc_runtime_Memory_alloc__F)
                  86d1b8e0    000000c0     edma3_lld_rm.ae674 : edma3resmgr.oe674 (.text:EDMA3_RM_delete)
                  86d1b9a0    000000c0     rts6740_elf.lib : trgdrv.obj (.text:HOSTread)
                  86d1ba60    000000c0                     : trgdrv.obj (.text:HOSTunlink)
                  86d1bb20    000000c0                     : trgdrv.obj (.text:HOSTwrite)
                  86d1bbe0    000000c0     ipc.ae674 : Ipc.obj (.text:HeapMemMP_create)
                  86d1bca0    000000c0               : Ipc.obj (.text:ListMP_create)
                  86d1bd60    000000c0               : Ipc.obj (.text:SharedRegion_getId)
                  86d1be20    000000c0     rts6740_elf.lib : dtor_list.obj (.text:_Z11__TI_atexitPFYvPvES_S_)
                  86d1bee0    000000c0                     : dtor_list.obj (.text:__cxa_finalize)
                  86d1bfa0    000000c0                     : divu.obj (.text:__divu)
                  86d1c060    000000c0                     : remi.obj (.text:__remi)
                  86d1c120    000000c0                     : _printfi.obj (.text:_div)
                  86d1c1e0    000000c0                     : fflush.obj (.text:_doflush)
                  86d1c2a0    000000c0     edma3_lld_drv_sample.ae674 : sample_cs.oe674 (.text:edma3OsProtectExit)
                  86d1c360    000000c0     rts6740_elf.lib : exit.obj (.text:exit)
                  86d1c420    000000c0     edma3_lld_drv_sample.ae674 : sample_ti814x_int_reg.oe674 (.text:sampleConfigScr)
                  86d1c4e0    000000c0     ipc.ae674 : Ipc.obj (.text:ti_sdo_ipc_GateMP_getRegion0ReservedSize__F)
                  86d1c5a0    000000c0     sysbios.ae674 : BIOS.obj (.text:ti_sysbios_BIOS_errorRaiseHook__I)
                  86d1c660    000000c0                   : BIOS.obj (.text:ti_sysbios_gates_GateAll_leave__E)
                  86d1c720    000000c0                   : BIOS.obj (.text:ti_sysbios_heaps_HeapMem_getStats__E)
                  86d1c7e0    000000c0                   : BIOS.obj (.text:ti_sysbios_knl_Clock_logTick__E)
                  86d1c8a0    000000c0                   : BIOS.obj (.text:ti_sysbios_knl_Swi_postInit__I)
                  86d1c960    000000c0                   : BIOS.obj (.text:ti_sysbios_knl_Task_allBlockedFunction__I)
                  86d1ca20    000000c0                   : BIOS.obj (.text:ti_sysbios_utils_Load_taskSwitchHook__E)
                  86d1cae0    000000c0     edma3_lld_drv_sample.ae674 : sample_ti814x_int_reg.oe674 (.text:unregisterEdma3Interrupts)
                  86d1cba0    000000c0     ti.targets.rts6000.ae674 : System.oe674 (.text:xdc_runtime_System_formatNum__I)
                  86d1cc60    000000a0     edma3_lld_drv.ae674 : edma3_drv_init.oe674 (.text:EDMA3_DRV_initXbarEventMap)
                  86d1cd00    000000a0     rts6740_elf.lib : trgdrv.obj (.text:HOSTclose)
                  86d1cda0    000000a0     ipc.ae674 : Ipc.obj (.text:MessageQ_create)
                  86d1ce40    000000a0     rts6740_elf.lib : fltullf.obj (.text:__c6xabi_fltullf)
                  86d1cee0    000000a0                     : round.obj (.text:__c6xabi_nround)
                  86d1cf80    000000a0                     : remu.obj (.text:__remu)
                  86d1d020    000000a0                     : fopen.obj (.text:_cleanup)
                  86d1d0c0    000000a0                     : _printfi.obj (.text:_ecpy)
                  86d1d160    000000a0                     : _printfi.obj (.text:_fcpy)
                  86d1d200    000000a0                     : _printfi.obj (.text:_pconv_f)
                  86d1d2a0    000000a0     sysbios.ae674 : c64p_Hwi_asm.obj (.text:_ti_sysbios_family_c64p_Hwi_plug__E)
                  86d1d340    000000a0     edma3_lld_drv_sample.ae674 : sample_init.oe674 (.text:edma3deinit)
                  86d1d3e0    000000a0     rts6740_elf.lib : lowlev.obj (.text:finddevice)
                  86d1d480    000000a0                     : lowlev.obj (.text:lseek)
                  86d1d520    000000a0     BIOS_AVSDK_dsp_pe674.oe674 (.text:malloc)
                  86d1d5c0    000000a0     rts6740_elf.lib : memcpy64.obj (.text:memcpy)
                  86d1d660    000000a0                     : modf.obj (.text:modf)
                  86d1d700    000000a0     BIOS_AVSDK_dsp_pe674.oe674 (.text:ti_sdo_ipc_gates_GateHWSpinlock_Object__create__S)
                  86d1d7a0    000000a0     BIOS_AVSDK_dsp_pe674.oe674 (.text:ti_sdo_ipc_gates_GateMPSupportNull_Object__create__S)
                  86d1d840    000000a0     ipc.ae674 : Ipc.obj (.text:ti_sdo_ipc_gates_GatePeterson_leave__E)
                  86d1d8e0    000000a0     sysbios.ae674 : BIOS.obj (.text:ti_sysbios_heaps_HeapMem_init__I)
                  86d1d980    000000a0     BIOS_AVSDK_dsp_pe674.oe674 (.text:ti_sysbios_knl_Clock_Object__create__S)
                  86d1da20    000000a0     sysbios.ae674 : BIOS.obj (.text:ti_sysbios_knl_Idle_run__E)
                  86d1dac0    000000a0     BIOS_AVSDK_dsp_pe674.oe674 (.text:ti_sysbios_knl_Semaphore_Object__create__S)
                  86d1db60    000000a0     sysbios.ae674 : BIOS.obj (.text:ti_sysbios_syncs_SyncSem_wait__F)
                  86d1dc00    000000a0                   : BIOS.obj (.text:ti_sysbios_utils_Load_swiBeginHook__E)
                  86d1dca0    000000a0     rts6740_elf.lib : lowlev.obj (.text:write)
                  86d1dd40    000000a0     ti.targets.rts6000.ae674 : Assert.oe674 (.text:xdc_runtime_Assert_raise__I)
                  86d1dde0    000000a0                              : SysMin.oe674 (.text:xdc_runtime_SysMin_abort__F)
                  86d1de80    000000a0                              : SysMin.oe674 (.text:xdc_runtime_SysMin_flush__F)
                  86d1df20    000000a0                              : SysMin.oe674 (.text:xdc_runtime_SysMin_putch__F)
                  86d1dfc0    00000080     ipc.ae674 : Ipc.obj (.text:HeapBufMP_Params_init)
                  86d1e040    00000080     rts6740_elf.lib : llshift.obj (.text:__c6xabi_llshl)
                  86d1e0c0    00000080                     : vsnprintf.obj (.text:_outs)
                  86d1e140    00000080     sysbios.ae674 : c62_TaskSupport_asm.obj (.text:_ti_sysbios_family_c62_TaskSupport_swap__E)
                  86d1e1c0    00000080     edma3_lld_rm.ae674 : edma3resmgr.oe674 (.text:edma3MemCpy)
                  86d1e240    00000080     edma3_lld_drv_sample.ae674 : sample_cs.oe674 (.text:edma3OsSemCreate)
                  86d1e2c0    00000080     rts6740_elf.lib : trgmsg.obj (.text:readmsg)
                  86d1e340    00000080     edma3_lld_drv_sample.ae674 : sample_ti814x_int_reg.oe674 (.text:sampleInitXbarEvt)
                  86d1e3c0    00000080     ipc.ae674 : Ipc.obj (.text:ti_sdo_ipc_family_c6a8149_InterruptDsp_intEveShmStub__I)
                  86d1e440    00000080               : Ipc.obj (.text:ti_sdo_ipc_notifyDrivers_NotifyDriverShm_Instance_finalize__F)
                  86d1e4c0    00000080               : Ipc.obj (.text:ti_sdo_ipc_nsremote_NameServerRemoteNotify_detach__E)
                  86d1e540    00000080               : Ipc.obj (.text:ti_sdo_ipc_transports_TransportShm_swiFxn__I)
                  86d1e5c0    00000080     BIOS_AVSDK_dsp_pe674.oe674 (.text:ti_sdo_utils_List_Object__create__S)
                  86d1e640    00000080     BIOS_AVSDK_dsp_pe674.oe674 (.text:ti_sysbios_BIOS_exitFunc__I)
                  86d1e6c0    00000080     sysbios.ae674 : BIOS.obj (.text:ti_sysbios_family_c62_TaskSupport_start__E)
                  86d1e740    00000080                   : BIOS.obj (.text:ti_sysbios_family_c64p_Cache_invL1pAll__E)
                  86d1e7c0    00000080     BIOS_AVSDK_dsp_pe674.oe674 (.text:ti_sysbios_gates_GateAll_Object__create__S)
                  86d1e840    00000080     BIOS_AVSDK_dsp_pe674.oe674 (.text:ti_sysbios_gates_GateHwi_Object__create__S)
                  86d1e8c0    00000080     BIOS_AVSDK_dsp_pe674.oe674 (.text:ti_sysbios_gates_GateMutexPri_Object__create__S)
                  86d1e940    00000080     BIOS_AVSDK_dsp_pe674.oe674 (.text:ti_sysbios_gates_GateMutex_Object__create__S)
                  86d1e9c0    00000080     BIOS_AVSDK_dsp_pe674.oe674 (.text:ti_sysbios_gates_GateSwi_Object__create__S)
                  86d1ea40    00000080     sysbios.ae674 : BIOS.obj (.text:ti_sysbios_gates_GateSwi_leave__E)
                  86d1eac0    00000080     BIOS_AVSDK_dsp_pe674.oe674 (.text:ti_sysbios_heaps_HeapMem_Object__create__S)
                  86d1eb40    00000080     BIOS_AVSDK_dsp_pe674.oe674 (.text:ti_sysbios_knl_Clock_doTick__I)
                  86d1ebc0    00000080     BIOS_AVSDK_dsp_pe674.oe674 (.text:ti_sysbios_knl_Queue_Object__create__S)
                  86d1ec40    00000080     sysbios.ae674 : BIOS.obj (.text:ti_sysbios_knl_Swi_startup__E)
                  86d1ecc0    00000080                   : BIOS.obj (.text:ti_sysbios_knl_Task_restore__E)
                  86d1ed40    00000080                   : BIOS.obj (.text:ti_sysbios_utils_Load_hwiEndHook__E)
                  86d1edc0    00000080                   : BIOS.obj (.text:ti_sysbios_utils_Load_swiEndHook__E)
                  86d1ee40    00000080     BIOS_AVSDK_dsp_pe674.oe674 (.text:ti_sysbios_xdcruntime_GateThreadSupport_Object__create__S)
                  86d1eec0    00000080     rts6740_elf.lib : lowlev.obj (.text:unlink)
                  86d1ef40    00000080                     : vsnprintf.obj (.text:vsnprintf)
                  86d1efc0    00000080     ti.targets.rts6000.ae674 : Core-label.oe674 (.text:xdc_runtime_Core_assignLabel__I)
                  86d1f040    00000080                              : Core-params.oe674 (.text:xdc_runtime_Core_assignParams__I)
                  86d1f0c0    00000080     BIOS_AVSDK_dsp_pe674.oe674 (.text:xdc_runtime_SysMin_output__I)
                  86d1f140    00000080     ti.targets.rts6000.ae674 : System.oe674 (.text:xdc_runtime_System_atexit__F)
                  86d1f1c0    00000080                              : System.oe674 (.text:xdc_runtime_System_rtsExit__I)
                  86d1f240    00000080                              : Text.oe674 (.text:xdc_runtime_Text_printVisFxn__I)
                  86d1f2c0    00000080                              : Text.oe674 (.text:xdc_runtime_Text_xprintf__I)
                  86d1f340    00000060     edma3_lld_rm.ae674 : edma3resmgr.oe674 (.text:EDMA3_RM_initXbarEventMap)
                  86d1f3a0    00000060     ipc.ae674 : Ipc.obj (.text:GateMP_Params_init)
                  86d1f400    00000060               : Ipc.obj (.text:HeapMemMP_Params_init)
                  86d1f460    00000060     rts6740_elf.lib : assert.obj (.text:__c6xabi_abort_msg)
                  86d1f4c0    00000060                     : llshift.obj (.text:__c6xabi_llshr)
                  86d1f520    00000060                     : imath64.obj (.text:_subcull)
                  86d1f580    00000060     edma3_lld_drv_sample.ae674 : sample_cs.oe674 (.text:edma3OsSemTake)
                  86d1f5e0    00000060     rts6740_elf.lib : fopen.obj (.text:fopen)
                  86d1f640    00000060                     : memccpy.obj (.text:memccpy)
                  86d1f6a0    00000060                     : sprintf.obj (.text:sprintf)
                  86d1f700    00000060                     : lowlev.obj (.text:tabinit)
                  86d1f760    00000060     BIOS_AVSDK_dsp_pe674.oe674 (.text:ti_sdo_ipc_GateMP_Object__delete__S)
                  86d1f7c0    00000060     BIOS_AVSDK_dsp_pe674.oe674 (.text:ti_sdo_ipc_ListMP_Object__delete__S)
                  86d1f820    00000060     BIOS_AVSDK_dsp_pe674.oe674 (.text:ti_sdo_ipc_MessageQ_Object__delete__S)
                  86d1f880    00000060     ipc.ae674 : Ipc.obj (.text:ti_sdo_ipc_family_c6a8149_NotifySetup_numIntLines__E)
                  86d1f8e0    00000060     BIOS_AVSDK_dsp_pe674.oe674 (.text:ti_sdo_ipc_gates_GateHWSpinlock_Handle__label__S)
                  86d1f940    00000060     BIOS_AVSDK_dsp_pe674.oe674 (.text:ti_sdo_ipc_gates_GateHWSpinlock_Object__delete__S)
                  86d1f9a0    00000060     BIOS_AVSDK_dsp_pe674.oe674 (.text:ti_sdo_ipc_gates_GateMPSupportNull_Handle__label__S)
                  86d1fa00    00000060     BIOS_AVSDK_dsp_pe674.oe674 (.text:ti_sdo_ipc_gates_GateMPSupportNull_Object__delete__S)
                  86d1fa60    00000060     BIOS_AVSDK_dsp_pe674.oe674 (.text:ti_sdo_ipc_gates_GatePeterson_Handle__label__S)
                  86d1fac0    00000060     ipc.ae674 : Ipc.obj (.text:ti_sdo_ipc_gates_GatePeterson_Instance_finalize__F)
                  86d1fb20    00000060     BIOS_AVSDK_dsp_pe674.oe674 (.text:ti_sdo_ipc_gates_GatePeterson_Object__delete__S)
                  86d1fb80    00000060     BIOS_AVSDK_dsp_pe674.oe674 (.text:ti_sdo_ipc_heaps_HeapBufMP_Handle__label__S)
                  86d1fbe0    00000060     BIOS_AVSDK_dsp_pe674.oe674 (.text:ti_sdo_ipc_heaps_HeapBufMP_Object__delete__S)
                  86d1fc40    00000060     BIOS_AVSDK_dsp_pe674.oe674 (.text:ti_sdo_ipc_heaps_HeapMemMP_Handle__label__S)
                  86d1fca0    00000060     BIOS_AVSDK_dsp_pe674.oe674 (.text:ti_sdo_ipc_heaps_HeapMemMP_Object__delete__S)
                  86d1fd00    00000060     BIOS_AVSDK_dsp_pe674.oe674 (.text:ti_sdo_ipc_notifyDrivers_NotifyDriverShm_Handle__label__S)
                  86d1fd60    00000060     BIOS_AVSDK_dsp_pe674.oe674 (.text:ti_sdo_ipc_notifyDrivers_NotifyDriverShm_Object__delete__S)
                  86d1fdc0    00000060     ipc.ae674 : Ipc.obj (.text:ti_sdo_ipc_notifyDrivers_NotifyDriverShm_setNotifyHandle__E)
                  86d1fe20    00000060     BIOS_AVSDK_dsp_pe674.oe674 (.text:ti_sdo_ipc_nsremote_NameServerRemoteNotify_Handle__label__S)
                  86d1fe80    00000060     BIOS_AVSDK_dsp_pe674.oe674 (.text:ti_sdo_ipc_nsremote_NameServerRemoteNotify_Object__delete__S)
                  86d1fee0    00000060     ipc.ae674 : Ipc.obj (.text:ti_sdo_ipc_transports_TransportShmSetup_sharedMemReq__E)
                  86d1ff40    00000060     BIOS_AVSDK_dsp_pe674.oe674 (.text:ti_sdo_ipc_transports_TransportShm_Handle__label__S)
                  86d1ffa0    00000060     BIOS_AVSDK_dsp_pe674.oe674 (.text:ti_sdo_ipc_transports_TransportShm_Object__delete__S)
                  86d20000    00000060     sysbios.ae674 : BIOS.obj (.text:ti_sysbios_BIOS_registerRTSLock__I)
                  86d20060    00000060                   : BIOS.obj (.text:ti_sysbios_family_c64p_Cache_setMar__E)
                  86d200c0    00000060                   : BIOS.obj (.text:ti_sysbios_family_c64p_EventCombiner_Module_startup__F)
                  86d20120    00000060                   : BIOS.obj (.text:ti_sysbios_family_c64p_EventCombiner_dispatchPlug__F)
                  86d20180    00000060                   : BIOS.obj (.text:ti_sysbios_family_c64p_Exception_Module_startup__F)
                  86d201e0    00000060     BIOS_AVSDK_dsp_pe674.oe674 (.text:ti_sysbios_family_c64p_Hwi_Object__delete__S)
                  86d20240    00000060     BIOS_AVSDK_dsp_pe674.oe674 (.text:ti_sysbios_gates_GateAll_Handle__label__S)
                  86d202a0    00000060     BIOS_AVSDK_dsp_pe674.oe674 (.text:ti_sysbios_gates_GateAll_Object__delete__S)
                  86d20300    00000060     sysbios.ae674 : BIOS.obj (.text:ti_sysbios_gates_GateAll_enter__E)
                  86d20360    00000060     BIOS_AVSDK_dsp_pe674.oe674 (.text:ti_sysbios_gates_GateHwi_Handle__label__S)
                  86d203c0    00000060     BIOS_AVSDK_dsp_pe674.oe674 (.text:ti_sysbios_gates_GateHwi_Object__delete__S)
                  86d20420    00000060     BIOS_AVSDK_dsp_pe674.oe674 (.text:ti_sysbios_gates_GateMutexPri_Handle__label__S)
                  86d20480    00000060     BIOS_AVSDK_dsp_pe674.oe674 (.text:ti_sysbios_gates_GateMutexPri_Object__delete__S)
                  86d204e0    00000060     BIOS_AVSDK_dsp_pe674.oe674 (.text:ti_sysbios_gates_GateMutex_Handle__label__S)
                  86d20540    00000060     sysbios.ae674 : BIOS.obj (.text:ti_sysbios_gates_GateMutex_Instance_init__F)
                  86d205a0    00000060     BIOS_AVSDK_dsp_pe674.oe674 (.text:ti_sysbios_gates_GateMutex_Object__delete__S)
                  86d20600    00000060     BIOS_AVSDK_dsp_pe674.oe674 (.text:ti_sysbios_gates_GateSwi_Handle__label__S)
                  86d20660    00000060     BIOS_AVSDK_dsp_pe674.oe674 (.text:ti_sysbios_gates_GateSwi_Object__delete__S)
                  86d206c0    00000060     BIOS_AVSDK_dsp_pe674.oe674 (.text:ti_sysbios_heaps_HeapMem_Handle__label__S)
                  86d20720    00000060     BIOS_AVSDK_dsp_pe674.oe674 (.text:ti_sysbios_heaps_HeapMem_Object__delete__S)
                  86d20780    00000060     sysbios.ae674 : BIOS.obj (.text:ti_sysbios_knl_Clock_Module_startup__F)
                  86d207e0    00000060     BIOS_AVSDK_dsp_pe674.oe674 (.text:ti_sysbios_knl_Semaphore_Object__delete__S)
                  86d20840    00000060     sysbios.ae674 : BIOS.obj (.text:ti_sysbios_knl_Semaphore_pendTimeout__I)
                  86d208a0    00000060                   : BIOS.obj (.text:ti_sysbios_knl_Task_enter__I)
                  86d20900    00000060     BIOS_AVSDK_dsp_pe674.oe674 (.text:ti_sysbios_syncs_SyncSem_Handle__label__S)
                  86d20960    00000060     BIOS_AVSDK_dsp_pe674.oe674 (.text:ti_sysbios_syncs_SyncSem_Object__delete__S)
                  86d209c0    00000060     sysbios.ae674 : BIOS.obj (.text:ti_sysbios_timers_dmtimer_Timer_getPeriod__E)
                  86d20a20    00000060                   : BIOS.obj (.text:ti_sysbios_timers_dmtimer_Timer_stub__E)
                  86d20a80    00000060     BIOS_AVSDK_dsp_pe674.oe674 (.text:ti_sysbios_xdcruntime_GateThreadSupport_Object__delete__S)
                  86d20ae0    00000060     ti.syslink.ipc.rtos.ae674 : Syslink.oe674 (.text:ti_syslink_ipc_rtos_Syslink_attach)
                  86d20b40    00000060     rts6740_elf.lib : trgmsg.obj (.text:writemsg)
                  86d20ba0    00000060     BIOS_AVSDK_dsp_pe674.oe674 (.text:xdc_runtime_GateNull_Handle__label__S)
                  86d20c00    00000060     BIOS_AVSDK_dsp_pe674.oe674 (.text:xdc_runtime_GateNull_Object__create__S)
                  86d20c60    00000060     BIOS_AVSDK_dsp_pe674.oe674 (.text:xdc_runtime_GateNull_Object__delete__S)
                  86d20cc0    00000060     ti.targets.rts6000.ae674 : Memory.oe674 (.text:xdc_runtime_Memory_calloc__F)
                  86d20d20    00000060                              : Memory.oe674 (.text:xdc_runtime_Memory_valloc__F)
                  86d20d80    00000060                              : SysMin.oe674 (.text:xdc_runtime_SysMin_Module_startup__F)
                  86d20de0    00000060                              : SysMin.oe674 (.text:xdc_runtime_SysMin_exit__F)
                  86d20e40    00000060                              : System.oe674 (.text:xdc_runtime_System_aprintf_va__F)
                  86d20ea0    00000060                              : System.oe674 (.text:xdc_runtime_System_printf_va__F)
                  86d20f00    00000060                              : Text.oe674 (.text:xdc_runtime_Text_cordText__F)
                  86d20f60    00000060     BIOS_AVSDK_dsp_pe674.oe674 (.text:xdc_runtime_knl_GateThread_Handle__label__S)
                  86d20fc0    00000060     BIOS_AVSDK_dsp_pe674.oe674 (.text:xdc_runtime_knl_GateThread_Object__delete__S)
                  86d21020    00000040     rts6740_elf.lib : frcmpyd_div.obj (.text:__c6xabi_frcmpyd_div)
                  86d21060    00000040                     : isinf.obj (.text:__c6xabi_isinf)
                  86d210a0    00000040                     : _printfi.obj (.text:__c6xabi_isnan)
                  86d210e0    00000040                     : llshift.obj (.text:__c6xabi_llshru)
                  86d21120    00000040                     : strasg.obj (.text:__strasgi_64plus)
                  86d21160    00000040                     : args_main.obj (.text:_args_main)
                  86d211a0    00000040                     : vsnprintf.obj (.text:_outc)
                  86d211e0    00000040                     : sprintf.obj (.text:_outs)
                  86d21220    00000040     sysbios.ae674 : c62_TaskSupport_asm.obj (.text:_ti_sysbios_family_c62_TaskSupport_buildTaskStack)
                  86d21260    00000040                   : c64p_Hwi_asm_switch.obj (.text:_ti_sysbios_family_xxx_Hwi_switchToIsrStack)
                  86d212a0    00000040     edma3_lld_drv_sample.ae674 : sample_cs.oe674 (.text:edma3OsSemDelete)
                  86d212e0    00000040                                : sample_cs.oe674 (.text:edma3OsSemGive)
                  86d21320    00000040     edma3_lld_rm.ae674 : edma3resmgr.oe674 (.text:edma3ParamCpy)
                  86d21360    00000040     BIOS_AVSDK_dsp_pe674.oe674 (.text:free)
                  86d213a0    00000040     rts6740_elf.lib : abs.obj (.text:llabs)
                  86d213e0    00000040     sysbios.ae674 : BIOS.obj (.text:rtsLock$0)
                  86d21420    00000040     edma3_lld_drv_sample.ae674 : sample_ti814x_int_reg.oe674 (.text:sampleMapXbarEvtToChan)
                  86d21460    00000040     ipc.ae674 : Ipc.obj (.text:ti_sdo_ipc_gates_GatePeterson_sharedMemReq__E)
                  86d214a0    00000040               : Ipc.obj (.text:ti_sdo_ipc_nsremote_NameServerRemoteNotify_sharedMemReq__E)
                  86d214e0    00000040     BIOS_AVSDK_dsp_pe674.oe674 (.text:ti_sdo_utils_NameServer_Module__startupDone__F)
                  86d21520    00000040     BIOS_AVSDK_dsp_pe674.oe674 (.text:ti_sdo_utils_NameServer_Object__get__S)
                  86d21560    00000040     BIOS_AVSDK_dsp_pe674.oe674 (.text:ti_sysbios_BIOS_startFunc__I)
                  86d215a0    00000040     sysbios.ae674 : BIOS.obj (.text:ti_sysbios_family_c64p_EventCombiner_disableEvent__F)
                  86d215e0    00000040                   : BIOS.obj (.text:ti_sysbios_family_c64p_EventCombiner_enableEvent__F)
                  86d21620    00000040                   : BIOS.obj (.text:ti_sysbios_family_c64p_EventCombiner_unused__F)
                  86d21660    00000040     BIOS_AVSDK_dsp_pe674.oe674 (.text:ti_sysbios_family_c64p_Hwi_Module__startupDone__F)
                  86d216a0    00000040     sysbios.ae674 : BIOS.obj (.text:ti_sysbios_family_c64p_Hwi_disableInterrupt__E)
                  86d216e0    00000040                   : BIOS.obj (.text:ti_sysbios_family_c64p_Hwi_enableInterrupt__E)
                  86d21720    00000040     BIOS_AVSDK_dsp_pe674.oe674 (.text:ti_sysbios_family_c64p_ti81xx_TimerSupport_Module__startupDone__F)
                  86d21760    00000040     sysbios.ae674 : BIOS.obj (.text:ti_sysbios_gates_GateMutexPri_Instance_init__F)
                  86d217a0    00000040     BIOS_AVSDK_dsp_pe674.oe674 (.text:ti_sysbios_gates_GateMutexPri_Object__destruct__S)
                  86d217e0    00000040     sysbios.ae674 : BIOS.obj (.text:ti_sysbios_gates_GateMutex_leave__E)
                  86d21820    00000040     BIOS_AVSDK_dsp_pe674.oe674 (.text:ti_sysbios_hal_Timer_Module__startupDone__F)
                  86d21860    00000040     BIOS_AVSDK_dsp_pe674.oe674 (.text:ti_sysbios_heaps_HeapMem_Object__get__S)
                  86d218a0    00000040     BIOS_AVSDK_dsp_pe674.oe674 (.text:ti_sysbios_knl_Clock_Object__destruct__S)
                  86d218e0    00000040     BIOS_AVSDK_dsp_pe674.oe674 (.text:ti_sysbios_knl_Semaphore_Object__destruct__S)
                  86d21920    00000040     BIOS_AVSDK_dsp_pe674.oe674 (.text:ti_sysbios_knl_Swi_Object__destruct__S)
                  86d21960    00000040     BIOS_AVSDK_dsp_pe674.oe674 (.text:ti_sysbios_knl_Swi_Object__get__S)
                  86d219a0    00000040     BIOS_AVSDK_dsp_pe674.oe674 (.text:ti_sysbios_knl_Task_Object__get__S)
                  86d219e0    00000040     sysbios.ae674 : BIOS.obj (.text:ti_sysbios_knl_Task_sleepTimeout__I)
                  86d21a20    00000040                   : BIOS.obj (.text:ti_sysbios_syncs_SyncSem_Instance_finalize__F)
                  86d21a60    00000040     BIOS_AVSDK_dsp_pe674.oe674 (.text:ti_sysbios_timers_dmtimer_Timer_Module__startupDone__F)
                  86d21aa0    00000040     sysbios.ae674 : BIOS.obj (.text:ti_sysbios_xdcruntime_GateThreadSupport_Instance_init__F)
                  86d21ae0    00000040     tsc_h.obj (.text)
                  86d21b20    00000040     ti.targets.rts6000.ae674 : Error.oe674 (.text:xdc_runtime_Error_check__F)
                  86d21b60    00000040                              : Error.oe674 (.text:xdc_runtime_Error_init__F)
                  86d21ba0    00000040                              : Memory.oe674 (.text:xdc_runtime_Memory_free__F)
                  86d21be0    00000040                              : Registry.oe674 (.text:xdc_runtime_Registry_findById__F)
                  86d21c20    00000040                              : System.oe674 (.text:xdc_runtime_System_abort__F)
                  86d21c60    00000040     BIOS_AVSDK_dsp_pe674.oe674 (.text:xdc_runtime_System_aprintf__E)
                  86d21ca0    00000040     BIOS_AVSDK_dsp_pe674.oe674 (.text:xdc_runtime_System_printf__E)
                  86d21ce0    00000040     BIOS_AVSDK_dsp_pe674.oe674 (.text:xdc_runtime_System_sprintf__E)
                  86d21d20    00000040     ti.targets.rts6000.ae674 : Text.oe674 (.text:xdc_runtime_Text_ropeText__F)
                  86d21d60    00000040                              : GateThread.oe674 (.text:xdc_runtime_knl_GateThread_Instance_finalize__F)
                  86d21da0    00000040                              : GateThread.oe674 (.text:xdc_runtime_knl_GateThread_Instance_init__F)
                  86d21de0    00000020     ipc.ae674 : Ipc.obj (.text:HeapBufMP_close)
                  86d21e00    00000020               : Ipc.obj (.text:HeapBufMP_delete)
                  86d21e20    00000020               : Ipc.obj (.text:MessageQ_delete)
                  86d21e40    00000020               : Ipc.obj (.text:MultiProc_self)
                  86d21e60    00000020     rts6740_elf.lib : errno.obj (.text:__c6xabi_errno_addr)
                  86d21e80    00000020                     : negll.obj (.text:__c6xabi_negll)
                  86d21ea0    00000020                     : trunc.obj (.text:__c6xabi_trunc)
                  86d21ec0    00000020                     : dtor_list.obj (.text:__cxa_atexit)
                  86d21ee0    00000020                     : dtor_list.obj (.text:__cxa_ia64_exit)
                  86d21f00    00000020     ti.targets.rts6000.ae674 : xdc_noinit.oe674 (.text:__xdc__init)
                  86d21f20    00000020     rts6740_elf.lib : _lock.obj (.text:_nop)
                  86d21f40    00000020                     : fprintf.obj (.text:_outc)
                  86d21f60    00000020                     : printf.obj (.text:_outc)
                  86d21f80    00000020                     : sprintf.obj (.text:_outc)
                  86d21fa0    00000020                     : fprintf.obj (.text:_outs)
                  86d21fc0    00000020                     : printf.obj (.text:_outs)
                  86d21fe0    00000020                     : _lock.obj (.text:_register_lock)
                  86d22000    00000020                     : _lock.obj (.text:_register_unlock)
                  86d22020    00000020     sysbios.ae674 : c62_TaskSupport_asm.obj (.text:_ti_sysbios_family_c62_TaskSupport_glue)
                  86d22040    00000020                   : c64p_Hwi_asm_switch.obj (.text:_ti_sysbios_family_xxx_Hwi_switchToTaskStack)
                  86d22060    00000020     rts6740_elf.lib : exit.obj (.text:abort)
                  86d22080    00000020                     : dtor_list.obj (.text:atexit)
                  86d220a0    00000020     edma3_lld_drv_sample.ae674 : sample_ti814x_cfg.oe674 (.text:determineProcId)
                  86d220c0    00000020     edma3_lld_rm.ae674 : edma3resmgr.oe674 (.text:edma3MemZero)
                  86d220e0    00000020     edma3_lld_drv_sample.ae674 : sample_ti814x_cfg.oe674 (.text:isGblConfigRequired)
                  86d22100    00000020     edma3_lld_rm.ae674 : edma3resmgr.oe674 (.text:lisrEdma3CCErrHandler0)
                  86d22120    00000020                        : edma3resmgr.oe674 (.text:lisrEdma3ComplHandler0)
                  86d22140    00000020                        : edma3resmgr.oe674 (.text:lisrEdma3TC0ErrHandler0)
                  86d22160    00000020                        : edma3resmgr.oe674 (.text:lisrEdma3TC1ErrHandler0)
                  86d22180    00000020                        : edma3resmgr.oe674 (.text:lisrEdma3TC2ErrHandler0)
                  86d221a0    00000020                        : edma3resmgr.oe674 (.text:lisrEdma3TC3ErrHandler0)
                  86d221c0    00000020                        : edma3resmgr.oe674 (.text:lisrEdma3TC4ErrHandler0)
                  86d221e0    00000020                        : edma3resmgr.oe674 (.text:lisrEdma3TC5ErrHandler0)
                  86d22200    00000020                        : edma3resmgr.oe674 (.text:lisrEdma3TC6ErrHandler0)
                  86d22220    00000020                        : edma3resmgr.oe674 (.text:lisrEdma3TC7ErrHandler0)
                  86d22240    00000020     sysbios.ae674 : BIOS.obj (.text:nullFunc$0)
                  86d22260    00000020     rts6740_elf.lib : remove.obj (.text:remove)
                  86d22280    00000020     BIOS_AVSDK_dsp_pe674.oe674 (.text:ti_sdo_ipc_GateMP_Params__init__S)
                  86d222a0    00000020     BIOS_AVSDK_dsp_pe674.oe674 (.text:ti_sdo_ipc_GateMP_RemoteCustom1Proxy_Object__create__S)
                  86d222c0    00000020     BIOS_AVSDK_dsp_pe674.oe674 (.text:ti_sdo_ipc_GateMP_RemoteCustom1Proxy_Object__delete__S)
                  86d222e0    00000020     BIOS_AVSDK_dsp_pe674.oe674 (.text:ti_sdo_ipc_GateMP_RemoteCustom1Proxy_Params__init__S)
                  86d22300    00000020     BIOS_AVSDK_dsp_pe674.oe674 (.text:ti_sdo_ipc_GateMP_RemoteCustom1Proxy_Proxy__abstract__S)
                  86d22320    00000020     BIOS_AVSDK_dsp_pe674.oe674 (.text:ti_sdo_ipc_GateMP_RemoteCustom1Proxy_Proxy__delegate__S)
                  86d22340    00000020     BIOS_AVSDK_dsp_pe674.oe674 (.text:ti_sdo_ipc_GateMP_RemoteCustom1Proxy_getReservedMask__E)
                  86d22360    00000020     BIOS_AVSDK_dsp_pe674.oe674 (.text:ti_sdo_ipc_GateMP_RemoteCustom1Proxy_sharedMemReq__E)
                  86d22380    00000020     BIOS_AVSDK_dsp_pe674.oe674 (.text:ti_sdo_ipc_GateMP_RemoteCustom2Proxy_Object__create__S)
                  86d223a0    00000020     BIOS_AVSDK_dsp_pe674.oe674 (.text:ti_sdo_ipc_GateMP_RemoteCustom2Proxy_Object__delete__S)
                  86d223c0    00000020     BIOS_AVSDK_dsp_pe674.oe674 (.text:ti_sdo_ipc_GateMP_RemoteCustom2Proxy_Params__init__S)
                  86d223e0    00000020     BIOS_AVSDK_dsp_pe674.oe674 (.text:ti_sdo_ipc_GateMP_RemoteCustom2Proxy_Proxy__abstract__S)
                  86d22400    00000020     BIOS_AVSDK_dsp_pe674.oe674 (.text:ti_sdo_ipc_GateMP_RemoteCustom2Proxy_Proxy__delegate__S)
                  86d22420    00000020     BIOS_AVSDK_dsp_pe674.oe674 (.text:ti_sdo_ipc_GateMP_RemoteCustom2Proxy_getReservedMask__E)
                  86d22440    00000020     BIOS_AVSDK_dsp_pe674.oe674 (.text:ti_sdo_ipc_GateMP_RemoteCustom2Proxy_sharedMemReq__E)
                  86d22460    00000020     BIOS_AVSDK_dsp_pe674.oe674 (.text:ti_sdo_ipc_GateMP_RemoteSystemProxy_Object__create__S)
                  86d22480    00000020     BIOS_AVSDK_dsp_pe674.oe674 (.text:ti_sdo_ipc_GateMP_RemoteSystemProxy_Object__delete__S)
                  86d224a0    00000020     BIOS_AVSDK_dsp_pe674.oe674 (.text:ti_sdo_ipc_GateMP_RemoteSystemProxy_Params__init__S)
                  86d224c0    00000020     BIOS_AVSDK_dsp_pe674.oe674 (.text:ti_sdo_ipc_GateMP_RemoteSystemProxy_Proxy__abstract__S)
                  86d224e0    00000020     BIOS_AVSDK_dsp_pe674.oe674 (.text:ti_sdo_ipc_GateMP_RemoteSystemProxy_Proxy__delegate__S)
                  86d22500    00000020     BIOS_AVSDK_dsp_pe674.oe674 (.text:ti_sdo_ipc_GateMP_RemoteSystemProxy_getReservedMask__E)
                  86d22520    00000020     BIOS_AVSDK_dsp_pe674.oe674 (.text:ti_sdo_ipc_GateMP_RemoteSystemProxy_sharedMemReq__E)
                  86d22540    00000020     BIOS_AVSDK_dsp_pe674.oe674 (.text:ti_sdo_ipc_GateMP_attach__E)
                  86d22560    00000020     BIOS_AVSDK_dsp_pe674.oe674 (.text:ti_sdo_ipc_GateMP_getRegion0ReservedSize__E)
                  86d22580    00000020     BIOS_AVSDK_dsp_pe674.oe674 (.text:ti_sdo_ipc_GateMP_getSharedAddr__E)
                  86d225a0    00000020     ipc.ae674 : Ipc.obj (.text:ti_sdo_ipc_GateMP_getSharedAddr__F)
                  86d225c0    00000020     BIOS_AVSDK_dsp_pe674.oe674 (.text:ti_sdo_ipc_GateMP_start__E)
                  86d225e0    00000020     BIOS_AVSDK_dsp_pe674.oe674 (.text:ti_sdo_ipc_ListMP_Params__init__S)
                  86d22600    00000020     BIOS_AVSDK_dsp_pe674.oe674 (.text:ti_sdo_ipc_MessageQ_Module_startup__E)
                  86d22620    00000020     BIOS_AVSDK_dsp_pe674.oe674 (.text:ti_sdo_ipc_MessageQ_Object__get__S)
                  86d22640    00000020     BIOS_AVSDK_dsp_pe674.oe674 (.text:ti_sdo_ipc_MessageQ_Params__init__S)
                  86d22660    00000020     BIOS_AVSDK_dsp_pe674.oe674 (.text:ti_sdo_ipc_MessageQ_SetupTransportProxy_attach__E)
                  86d22680    00000020     BIOS_AVSDK_dsp_pe674.oe674 (.text:ti_sdo_ipc_MessageQ_SetupTransportProxy_isRegistered__E)
                  86d226a0    00000020     BIOS_AVSDK_dsp_pe674.oe674 (.text:ti_sdo_ipc_MessageQ_SetupTransportProxy_sharedMemReq__E)
                  86d226c0    00000020     BIOS_AVSDK_dsp_pe674.oe674 (.text:ti_sdo_ipc_MessageQ_registerTransport__E)
                  86d226e0    00000020     BIOS_AVSDK_dsp_pe674.oe674 (.text:ti_sdo_ipc_MessageQ_unregisterTransport__E)
                  86d22700    00000020     BIOS_AVSDK_dsp_pe674.oe674 (.text:ti_sdo_ipc_Notify_Module_GateProxy_enter__E)
                  86d22720    00000020     BIOS_AVSDK_dsp_pe674.oe674 (.text:ti_sdo_ipc_Notify_Module_GateProxy_leave__E)
                  86d22740    00000020     BIOS_AVSDK_dsp_pe674.oe674 (.text:ti_sdo_ipc_Notify_Module_startup__E)
                  86d22760    00000020     BIOS_AVSDK_dsp_pe674.oe674 (.text:ti_sdo_ipc_Notify_SetupProxy_attach__E)
                  86d22780    00000020     BIOS_AVSDK_dsp_pe674.oe674 (.text:ti_sdo_ipc_Notify_SetupProxy_numIntLines__E)
                  86d227a0    00000020     BIOS_AVSDK_dsp_pe674.oe674 (.text:ti_sdo_ipc_Notify_SetupProxy_sharedMemReq__E)
                  86d227c0    00000020     BIOS_AVSDK_dsp_pe674.oe674 (.text:ti_sdo_ipc_Notify_exec__E)
                  86d227e0    00000020     BIOS_AVSDK_dsp_pe674.oe674 (.text:ti_sdo_ipc_SharedRegion_attach__E)
                  86d22800    00000020     BIOS_AVSDK_dsp_pe674.oe674 (.text:ti_sdo_ipc_SharedRegion_clearReservedMemory__E)
                  86d22820    00000020     BIOS_AVSDK_dsp_pe674.oe674 (.text:ti_sdo_ipc_SharedRegion_reserveMemory__E)
                  86d22840    00000020     BIOS_AVSDK_dsp_pe674.oe674 (.text:ti_sdo_ipc_SharedRegion_start__E)
                  86d22860    00000020     BIOS_AVSDK_dsp_pe674.oe674 (.text:ti_sdo_ipc_gates_GateHWSpinlock_Module_startup__E)
                  86d22880    00000020     BIOS_AVSDK_dsp_pe674.oe674 (.text:ti_sdo_ipc_gates_GateHWSpinlock_Params__init__S)
                  86d228a0    00000020     ipc.ae674 : Ipc.obj (.text:ti_sdo_ipc_gates_GateHWSpinlock_getReservedMask__E)
                  86d228c0    00000020     BIOS_AVSDK_dsp_pe674.oe674 (.text:ti_sdo_ipc_gates_GateHWSpinlock_query__E)
                  86d228e0    00000020     ipc.ae674 : Ipc.obj (.text:ti_sdo_ipc_gates_GateHWSpinlock_query__F)
                  86d22900    00000020               : Ipc.obj (.text:ti_sdo_ipc_gates_GateHWSpinlock_sharedMemReq__E)
                  86d22920    00000020               : Ipc.obj (.text:ti_sdo_ipc_gates_GateMPSupportNull_Instance_init__F)
                  86d22940    00000020     BIOS_AVSDK_dsp_pe674.oe674 (.text:ti_sdo_ipc_gates_GateMPSupportNull_Params__init__S)
                  86d22960    00000020     ipc.ae674 : Ipc.obj (.text:ti_sdo_ipc_gates_GateMPSupportNull_getReservedMask__E)
                  86d22980    00000020     BIOS_AVSDK_dsp_pe674.oe674 (.text:ti_sdo_ipc_gates_GateMPSupportNull_query__E)
                  86d229a0    00000020     ipc.ae674 : Ipc.obj (.text:ti_sdo_ipc_gates_GateMPSupportNull_query__F)
                  86d229c0    00000020               : Ipc.obj (.text:ti_sdo_ipc_gates_GateMPSupportNull_sharedMemReq__E)
                  86d229e0    00000020     BIOS_AVSDK_dsp_pe674.oe674 (.text:ti_sdo_ipc_gates_GatePeterson_Params__init__S)
                  86d22a00    00000020     ipc.ae674 : Ipc.obj (.text:ti_sdo_ipc_gates_GatePeterson_getReservedMask__E)
                  86d22a20    00000020     BIOS_AVSDK_dsp_pe674.oe674 (.text:ti_sdo_ipc_gates_GatePeterson_query__E)
                  86d22a40    00000020     ipc.ae674 : Ipc.obj (.text:ti_sdo_ipc_gates_GatePeterson_query__F)
                  86d22a60    00000020     BIOS_AVSDK_dsp_pe674.oe674 (.text:ti_sdo_ipc_heaps_HeapBufMP_Params__init__S)
                  86d22a80    00000020     BIOS_AVSDK_dsp_pe674.oe674 (.text:ti_sdo_ipc_heaps_HeapBufMP_getStats__E)
                  86d22aa0    00000020     BIOS_AVSDK_dsp_pe674.oe674 (.text:ti_sdo_ipc_heaps_HeapBufMP_isBlocking__E)
                  86d22ac0    00000020     ipc.ae674 : Ipc.obj (.text:ti_sdo_ipc_heaps_HeapBufMP_isBlocking__F)
                  86d22ae0    00000020     BIOS_AVSDK_dsp_pe674.oe674 (.text:ti_sdo_ipc_heaps_HeapMemMP_Params__init__S)
                  86d22b00    00000020     BIOS_AVSDK_dsp_pe674.oe674 (.text:ti_sdo_ipc_heaps_HeapMemMP_isBlocking__E)
                  86d22b20    00000020     ipc.ae674 : Ipc.obj (.text:ti_sdo_ipc_heaps_HeapMemMP_isBlocking__F)
                  86d22b40    00000020     BIOS_AVSDK_dsp_pe674.oe674 (.text:ti_sdo_ipc_notifyDrivers_NotifyDriverShm_InterruptProxy_intClear__E)
                  86d22b60    00000020     BIOS_AVSDK_dsp_pe674.oe674 (.text:ti_sdo_ipc_notifyDrivers_NotifyDriverShm_InterruptProxy_intDisable__E)
                  86d22b80    00000020     BIOS_AVSDK_dsp_pe674.oe674 (.text:ti_sdo_ipc_notifyDrivers_NotifyDriverShm_InterruptProxy_intEnable__E)
                  86d22ba0    00000020     BIOS_AVSDK_dsp_pe674.oe674 (.text:ti_sdo_ipc_notifyDrivers_NotifyDriverShm_InterruptProxy_intRegister__E)
                  86d22bc0    00000020     BIOS_AVSDK_dsp_pe674.oe674 (.text:ti_sdo_ipc_notifyDrivers_NotifyDriverShm_InterruptProxy_intSend__E)
                  86d22be0    00000020     BIOS_AVSDK_dsp_pe674.oe674 (.text:ti_sdo_ipc_notifyDrivers_NotifyDriverShm_InterruptProxy_intUnregister__E)
                  86d22c00    00000020     BIOS_AVSDK_dsp_pe674.oe674 (.text:ti_sdo_ipc_notifyDrivers_NotifyDriverShm_Params__init__S)
                  86d22c20    00000020     ipc.ae674 : Ipc.obj (.text:ti_sdo_ipc_notifyDrivers_NotifyDriverShm_disable__E)
                  86d22c40    00000020               : Ipc.obj (.text:ti_sdo_ipc_notifyDrivers_NotifyDriverShm_enable__E)
                  86d22c60    00000020     BIOS_AVSDK_dsp_pe674.oe674 (.text:ti_sdo_ipc_notifyDrivers_NotifyDriverShm_sharedMemReq__E)
                  86d22c80    00000020     BIOS_AVSDK_dsp_pe674.oe674 (.text:ti_sdo_ipc_nsremote_NameServerRemoteNotify_Object__first__S)
                  86d22ca0    00000020     BIOS_AVSDK_dsp_pe674.oe674 (.text:ti_sdo_ipc_nsremote_NameServerRemoteNotify_Object__next__S)
                  86d22cc0    00000020     BIOS_AVSDK_dsp_pe674.oe674 (.text:ti_sdo_ipc_nsremote_NameServerRemoteNotify_Params__init__S)
                  86d22ce0    00000020     ipc.ae674 : Ipc.obj (.text:ti_sdo_ipc_nsremote_NameServerRemoteNotify_cbFxn__I)
                  86d22d00    00000020     BIOS_AVSDK_dsp_pe674.oe674 (.text:ti_sdo_ipc_nsremote_NameServerRemoteNotify_get__E)
                  86d22d20    00000020     ipc.ae674 : Ipc.obj (.text:ti_sdo_ipc_transports_TransportShmSetup_isRegistered__E)
                  86d22d40    00000020     BIOS_AVSDK_dsp_pe674.oe674 (.text:ti_sdo_ipc_transports_TransportShm_Params__init__S)
                  86d22d60    00000020     ipc.ae674 : Ipc.obj (.text:ti_sdo_ipc_transports_TransportShm_control__E)
                  86d22d80    00000020               : Ipc.obj (.text:ti_sdo_ipc_transports_TransportShm_getStatus__E)
                  86d22da0    00000020               : Ipc.obj (.text:ti_sdo_ipc_transports_TransportShm_notifyFxn__I)
                  86d22dc0    00000020     BIOS_AVSDK_dsp_pe674.oe674 (.text:ti_sdo_ipc_transports_TransportShm_openByAddr__E)
                  86d22de0    00000020     BIOS_AVSDK_dsp_pe674.oe674 (.text:ti_sdo_ipc_transports_TransportShm_setErrFxn__E)
                  86d22e00    00000020     ipc.ae674 : Ipc.obj (.text:ti_sdo_ipc_transports_TransportShm_setErrFxn__F)
                  86d22e20    00000020     BIOS_AVSDK_dsp_pe674.oe674 (.text:ti_sdo_ipc_transports_TransportShm_sharedMemReq__E)
                  86d22e40    00000020     ipc.ae674 : Ipc.obj (.text:ti_sdo_utils_List_Instance_init__F)
                  86d22e60    00000020     BIOS_AVSDK_dsp_pe674.oe674 (.text:ti_sdo_utils_List_Object__destruct__S)
                  86d22e80    00000020     BIOS_AVSDK_dsp_pe674.oe674 (.text:ti_sdo_utils_List_Object__get__S)
                  86d22ea0    00000020     BIOS_AVSDK_dsp_pe674.oe674 (.text:ti_sdo_utils_MultiProc_getClusterId__E)
                  86d22ec0    00000020     ipc.ae674 : Ipc.obj (.text:ti_sdo_utils_MultiProc_getClusterId__F)
                  86d22ee0    00000020     BIOS_AVSDK_dsp_pe674.oe674 (.text:ti_sdo_utils_NameServer_Module__startupDone__S)
                  86d22f00    00000020     BIOS_AVSDK_dsp_pe674.oe674 (.text:ti_sdo_utils_NameServer_Module_startup__E)
                  86d22f20    00000020     BIOS_AVSDK_dsp_pe674.oe674 (.text:ti_sdo_utils_NameServer_Object__first__S)
                  86d22f40    00000020     BIOS_AVSDK_dsp_pe674.oe674 (.text:ti_sdo_utils_NameServer_Object__next__S)
                  86d22f60    00000020     BIOS_AVSDK_dsp_pe674.oe674 (.text:ti_sdo_utils_NameServer_SetupProxy_attach__E)
                  86d22f80    00000020     BIOS_AVSDK_dsp_pe674.oe674 (.text:ti_sdo_utils_NameServer_SetupProxy_sharedMemReq__E)
                  86d22fa0    00000020     BIOS_AVSDK_dsp_pe674.oe674 (.text:ti_sysbios_BIOS_RtsGateProxy_enter__E)
                  86d22fc0    00000020     BIOS_AVSDK_dsp_pe674.oe674 (.text:ti_sysbios_BIOS_RtsGateProxy_leave__E)
                  86d22fe0    00000020     sysbios.ae674 : BIOS.obj (.text:ti_sysbios_BIOS_getCpuFreq__E)
                  86d23000    00000020                   : BIOS.obj (.text:ti_sysbios_BIOS_getThreadType__E)
                  86d23020    00000020                   : BIOS.obj (.text:ti_sysbios_BIOS_setThreadType__E)
                  86d23040    00000020                   : BIOS.obj (.text:ti_sysbios_BIOS_start__E)
                  86d23060    00000020     BIOS_AVSDK_dsp_pe674.oe674 (.text:ti_sysbios_family_c62_TaskSupport_Module__startupDone__S)
                  86d23080    00000020     sysbios.ae674 : BIOS.obj (.text:ti_sysbios_family_c62_TaskSupport_getStackAlignment__E)
                  86d230a0    00000020     BIOS_AVSDK_dsp_pe674.oe674 (.text:ti_sysbios_family_c64p_Cache_Module_startup__E)
                  86d230c0    00000020     BIOS_AVSDK_dsp_pe674.oe674 (.text:ti_sysbios_family_c64p_EventCombiner_Module_startup__E)
                  86d230e0    00000020     BIOS_AVSDK_dsp_pe674.oe674 (.text:ti_sysbios_family_c64p_EventCombiner_disableEvent__E)
                  86d23100    00000020     BIOS_AVSDK_dsp_pe674.oe674 (.text:ti_sysbios_family_c64p_EventCombiner_dispatchPlug__E)
                  86d23120    00000020     BIOS_AVSDK_dsp_pe674.oe674 (.text:ti_sysbios_family_c64p_EventCombiner_dispatch__E)
                  86d23140    00000020     BIOS_AVSDK_dsp_pe674.oe674 (.text:ti_sysbios_family_c64p_EventCombiner_enableEvent__E)
                  86d23160    00000020     BIOS_AVSDK_dsp_pe674.oe674 (.text:ti_sysbios_family_c64p_EventCombiner_unused__E)
                  86d23180    00000020     BIOS_AVSDK_dsp_pe674.oe674 (.text:ti_sysbios_family_c64p_Exception_Module_startup__E)
                  86d231a0    00000020     BIOS_AVSDK_dsp_pe674.oe674 (.text:ti_sysbios_family_c64p_Hwi_Module__startupDone__S)
                  86d231c0    00000020     BIOS_AVSDK_dsp_pe674.oe674 (.text:ti_sysbios_family_c64p_Hwi_Module_startup__E)
                  86d231e0    00000020     BIOS_AVSDK_dsp_pe674.oe674 (.text:ti_sysbios_family_c64p_Hwi_Params__init__S)
                  86d23200    00000020     sysbios.ae674 : BIOS.obj (.text:ti_sysbios_family_c64p_Hwi_clearInterrupt__E)
                  86d23220    00000020                   : BIOS.obj (.text:ti_sysbios_family_c64p_Hwi_getHandle__E)
                  86d23240    00000020                   : BIOS.obj (.text:ti_sysbios_family_c64p_Hwi_startup__E)
                  86d23260    00000020                   : BIOS.obj (.text:ti_sysbios_family_c64p_Hwi_switchFromBootStack__E)
                  86d23280    00000020                   : BIOS.obj (.text:ti_sysbios_family_c64p_Hwi_unPluggedInterrupt__I)
                  86d232a0    00000020     BIOS_AVSDK_dsp_pe674.oe674 (.text:ti_sysbios_family_c64p_TimestampProvider_Module_startup__E)
                  86d232c0    00000020     sysbios.ae674 : BIOS.obj (.text:ti_sysbios_family_c64p_TimestampProvider_Module_startup__F)
                  86d232e0    00000020                   : BIOS.obj (.text:ti_sysbios_family_c64p_TimestampProvider_get32__E)
                  86d23300    00000020                   : BIOS.obj (.text:ti_sysbios_family_c64p_TimestampProvider_getFreq__E)
                  86d23320    00000020     BIOS_AVSDK_dsp_pe674.oe674 (.text:ti_sysbios_family_c64p_ti81xx_TimerSupport_Module__startupDone__S)
                  86d23340    00000020     BIOS_AVSDK_dsp_pe674.oe674 (.text:ti_sysbios_family_c64p_ti81xx_TimerSupport_Module_startup__E)
                  86d23360    00000020     sysbios.ae674 : BIOS.obj (.text:ti_sysbios_family_c64p_ti81xx_TimerSupport_Module_startup__F)
                  86d23380    00000020                   : BIOS.obj (.text:ti_sysbios_family_c64p_ti81xx_TimerSupport_enable__E)
                  86d233a0    00000020                   : BIOS.obj (.text:ti_sysbios_gates_GateAll_Instance_init__F)
                  86d233c0    00000020     BIOS_AVSDK_dsp_pe674.oe674 (.text:ti_sysbios_gates_GateAll_query__E)
                  86d233e0    00000020     sysbios.ae674 : BIOS.obj (.text:ti_sysbios_gates_GateAll_query__F)
                  86d23400    00000020                   : BIOS.obj (.text:ti_sysbios_gates_GateHwi_Instance_init__F)
                  86d23420    00000020                   : BIOS.obj (.text:ti_sysbios_gates_GateHwi_enter__E)
                  86d23440    00000020                   : BIOS.obj (.text:ti_sysbios_gates_GateHwi_leave__E)
                  86d23460    00000020     BIOS_AVSDK_dsp_pe674.oe674 (.text:ti_sysbios_gates_GateHwi_query__E)
                  86d23480    00000020     sysbios.ae674 : BIOS.obj (.text:ti_sysbios_gates_GateHwi_query__F)
                  86d234a0    00000020                   : BIOS.obj (.text:ti_sysbios_gates_GateMutexPri_Instance_finalize__F)
                  86d234c0    00000020     BIOS_AVSDK_dsp_pe674.oe674 (.text:ti_sysbios_gates_GateMutexPri_query__E)
                  86d234e0    00000020     sysbios.ae674 : BIOS.obj (.text:ti_sysbios_gates_GateMutexPri_query__F)
                  86d23500    00000020                   : BIOS.obj (.text:ti_sysbios_gates_GateMutex_Instance_finalize__F)
                  86d23520    00000020     BIOS_AVSDK_dsp_pe674.oe674 (.text:ti_sysbios_gates_GateMutex_query__E)
                  86d23540    00000020     sysbios.ae674 : BIOS.obj (.text:ti_sysbios_gates_GateMutex_query__F)
                  86d23560    00000020                   : BIOS.obj (.text:ti_sysbios_gates_GateSwi_Instance_init__F)
                  86d23580    00000020     BIOS_AVSDK_dsp_pe674.oe674 (.text:ti_sysbios_gates_GateSwi_query__E)
                  86d235a0    00000020     sysbios.ae674 : BIOS.obj (.text:ti_sysbios_gates_GateSwi_query__F)
                  86d235c0    00000020     BIOS_AVSDK_dsp_pe674.oe674 (.text:ti_sysbios_hal_Cache_CacheProxy_inv__E)
                  86d235e0    00000020     BIOS_AVSDK_dsp_pe674.oe674 (.text:ti_sysbios_hal_Cache_CacheProxy_wbInv__E)
                  86d23600    00000020     sysbios.ae674 : BIOS.obj (.text:ti_sysbios_hal_Cache_inv__E)
                  86d23620    00000020                   : BIOS.obj (.text:ti_sysbios_hal_Cache_wbInv__E)
                  86d23640    00000020     BIOS_AVSDK_dsp_pe674.oe674 (.text:ti_sysbios_hal_Hwi_HwiProxy_Module__startupDone__S)
                  86d23660    00000020     BIOS_AVSDK_dsp_pe674.oe674 (.text:ti_sysbios_hal_Hwi_HwiProxy_clearInterrupt__E)
                  86d23680    00000020     BIOS_AVSDK_dsp_pe674.oe674 (.text:ti_sysbios_hal_Hwi_HwiProxy_disableInterrupt__E)
                  86d236a0    00000020     BIOS_AVSDK_dsp_pe674.oe674 (.text:ti_sysbios_hal_Hwi_HwiProxy_enableInterrupt__E)
                  86d236c0    00000020     BIOS_AVSDK_dsp_pe674.oe674 (.text:ti_sysbios_hal_Hwi_HwiProxy_startup__E)
                  86d236e0    00000020     BIOS_AVSDK_dsp_pe674.oe674 (.text:ti_sysbios_hal_Hwi_HwiProxy_switchFromBootStack__E)
                  86d23700    00000020     BIOS_AVSDK_dsp_pe674.oe674 (.text:ti_sysbios_hal_Hwi_Module_startup__E)
                  86d23720    00000020     sysbios.ae674 : BIOS.obj (.text:ti_sysbios_hal_Hwi_Module_startup__F)
                  86d23740    00000020                   : BIOS.obj (.text:ti_sysbios_hal_Hwi_startup__E)
                  86d23760    00000020     BIOS_AVSDK_dsp_pe674.oe674 (.text:ti_sysbios_hal_Timer_Module__startupDone__S)
                  86d23780    00000020     BIOS_AVSDK_dsp_pe674.oe674 (.text:ti_sysbios_hal_Timer_Module_startup__E)
                  86d237a0    00000020     sysbios.ae674 : BIOS.obj (.text:ti_sysbios_hal_Timer_Module_startup__F)
                  86d237c0    00000020     BIOS_AVSDK_dsp_pe674.oe674 (.text:ti_sysbios_hal_Timer_TimerProxy_Module__startupDone__S)
                  86d237e0    00000020     BIOS_AVSDK_dsp_pe674.oe674 (.text:ti_sysbios_hal_Timer_TimerProxy_getPeriod__E)
                  86d23800    00000020     BIOS_AVSDK_dsp_pe674.oe674 (.text:ti_sysbios_hal_Timer_TimerProxy_startup__E)
                  86d23820    00000020     sysbios.ae674 : BIOS.obj (.text:ti_sysbios_hal_Timer_startup__E)
                  86d23840    00000020     BIOS_AVSDK_dsp_pe674.oe674 (.text:ti_sysbios_heaps_HeapMem_Module_GateProxy_enter__E)
                  86d23860    00000020     BIOS_AVSDK_dsp_pe674.oe674 (.text:ti_sysbios_heaps_HeapMem_Module_GateProxy_leave__E)
                  86d23880    00000020     BIOS_AVSDK_dsp_pe674.oe674 (.text:ti_sysbios_heaps_HeapMem_Module_GateProxy_query__E)
                  86d238a0    00000020     sysbios.ae674 : BIOS.obj (.text:ti_sysbios_heaps_HeapMem_isBlocking__E)
                  86d238c0    00000020     BIOS_AVSDK_dsp_pe674.oe674 (.text:ti_sysbios_knl_Clock_Module_startup__E)
                  86d238e0    00000020     BIOS_AVSDK_dsp_pe674.oe674 (.text:ti_sysbios_knl_Clock_Params__init__S)
                  86d23900    00000020     sysbios.ae674 : BIOS.obj (.text:ti_sysbios_knl_Clock_getTicks__E)
                  86d23920    00000020                   : BIOS.obj (.text:ti_sysbios_knl_Idle_loop__E)
                  86d23940    00000020                   : BIOS.obj (.text:ti_sysbios_knl_Queue_Instance_init__F)
                  86d23960    00000020     BIOS_AVSDK_dsp_pe674.oe674 (.text:ti_sysbios_knl_Queue_Object__destruct__S)
                  86d23980    00000020     BIOS_AVSDK_dsp_pe674.oe674 (.text:ti_sysbios_knl_Queue_Object__get__S)
                  86d239a0    00000020     sysbios.ae674 : BIOS.obj (.text:ti_sysbios_knl_Queue_empty__E)
                  86d239c0    00000020                   : BIOS.obj (.text:ti_sysbios_knl_Semaphore_Instance_finalize__F)
                  86d239e0    00000020     BIOS_AVSDK_dsp_pe674.oe674 (.text:ti_sysbios_knl_Semaphore_Params__init__S)
                  86d23a00    00000020     BIOS_AVSDK_dsp_pe674.oe674 (.text:ti_sysbios_knl_Swi_Module_startup__E)
                  86d23a20    00000020     BIOS_AVSDK_dsp_pe674.oe674 (.text:ti_sysbios_knl_Swi_Params__init__S)
                  86d23a40    00000020     sysbios.ae674 : BIOS.obj (.text:ti_sysbios_knl_Swi_disable__E)
                  86d23a60    00000020     BIOS_AVSDK_dsp_pe674.oe674 (.text:ti_sysbios_knl_Task_Module_startup__E)
                  86d23a80    00000020     BIOS_AVSDK_dsp_pe674.oe674 (.text:ti_sysbios_knl_Task_Params__init__S)
                  86d23aa0    00000020     BIOS_AVSDK_dsp_pe674.oe674 (.text:ti_sysbios_knl_Task_SupportProxy_Module__startupDone__S)
                  86d23ac0    00000020     BIOS_AVSDK_dsp_pe674.oe674 (.text:ti_sysbios_knl_Task_SupportProxy_getStackAlignment__E)
                  86d23ae0    00000020     BIOS_AVSDK_dsp_pe674.oe674 (.text:ti_sysbios_knl_Task_SupportProxy_start__E)
                  86d23b00    00000020     BIOS_AVSDK_dsp_pe674.oe674 (.text:ti_sysbios_knl_Task_SupportProxy_swap__E)
                  86d23b20    00000020     sysbios.ae674 : BIOS.obj (.text:ti_sysbios_knl_Task_disable__E)
                  86d23b40    00000020                   : BIOS.obj (.text:ti_sysbios_knl_Task_enable__E)
                  86d23b60    00000020                   : BIOS.obj (.text:ti_sysbios_knl_Task_getPri__E)
                  86d23b80    00000020                   : BIOS.obj (.text:ti_sysbios_knl_Task_self__E)
                  86d23ba0    00000020                   : BIOS.obj (.text:ti_sysbios_knl_Task_startup__E)
                  86d23bc0    00000020     BIOS_AVSDK_dsp_pe674.oe674 (.text:ti_sysbios_syncs_SyncSem_query__E)
                  86d23be0    00000020     sysbios.ae674 : BIOS.obj (.text:ti_sysbios_syncs_SyncSem_query__F)
                  86d23c00    00000020     BIOS_AVSDK_dsp_pe674.oe674 (.text:ti_sysbios_syncs_SyncSem_signal__E)
                  86d23c20    00000020     sysbios.ae674 : BIOS.obj (.text:ti_sysbios_syncs_SyncSem_signal__F)
                  86d23c40    00000020     BIOS_AVSDK_dsp_pe674.oe674 (.text:ti_sysbios_syncs_SyncSem_wait__E)
                  86d23c60    00000020     BIOS_AVSDK_dsp_pe674.oe674 (.text:ti_sysbios_timers_dmtimer_Timer_Module__startupDone__S)
                  86d23c80    00000020     BIOS_AVSDK_dsp_pe674.oe674 (.text:ti_sysbios_timers_dmtimer_Timer_Module_startup__E)
                  86d23ca0    00000020     BIOS_AVSDK_dsp_pe674.oe674 (.text:ti_sysbios_timers_dmtimer_Timer_TimerSupportProxy_Module__startupDone__S)
                  86d23cc0    00000020     BIOS_AVSDK_dsp_pe674.oe674 (.text:ti_sysbios_timers_dmtimer_Timer_TimerSupportProxy_enable__E)
                  86d23ce0    00000020     sysbios.ae674 : BIOS.obj (.text:ti_sysbios_utils_Load_taskRegHook__E)
                  86d23d00    00000020                   : BIOS.obj (.text:ti_sysbios_xdcruntime_GateThreadSupport_Instance_finalize__F)
                  86d23d20    00000020     BIOS_AVSDK_dsp_pe674.oe674 (.text:ti_sysbios_xdcruntime_GateThreadSupport_enter__E)
                  86d23d40    00000020     sysbios.ae674 : BIOS.obj (.text:ti_sysbios_xdcruntime_GateThreadSupport_enter__F)
                  86d23d60    00000020     BIOS_AVSDK_dsp_pe674.oe674 (.text:ti_sysbios_xdcruntime_GateThreadSupport_leave__E)
                  86d23d80    00000020     BIOS_AVSDK_dsp_pe674.oe674 (.text:ti_sysbios_xdcruntime_GateThreadSupport_query__E)
                  86d23da0    00000020     sysbios.ae674 : BIOS.obj (.text:ti_sysbios_xdcruntime_GateThreadSupport_query__F)
                  86d23dc0    00000020     BIOS_AVSDK_dsp_pe674.oe674 (.text:xdc_runtime_Error_check__E)
                  86d23de0    00000020     BIOS_AVSDK_dsp_pe674.oe674 (.text:xdc_runtime_Error_init__E)
                  86d23e00    00000020     BIOS_AVSDK_dsp_pe674.oe674 (.text:xdc_runtime_Error_print__E)
                  86d23e20    00000020     BIOS_AVSDK_dsp_pe674.oe674 (.text:xdc_runtime_Error_raiseX__E)
                  86d23e40    00000020     BIOS_AVSDK_dsp_pe674.oe674 (.text:xdc_runtime_GateNull_enter__E)
                  86d23e60    00000020     ti.targets.rts6000.ae674 : GateNull.oe674 (.text:xdc_runtime_GateNull_enter__F)
                  86d23e80    00000020     BIOS_AVSDK_dsp_pe674.oe674 (.text:xdc_runtime_GateNull_leave__E)
                  86d23ea0    00000020     ti.targets.rts6000.ae674 : GateNull.oe674 (.text:xdc_runtime_GateNull_leave__F)
                  86d23ec0    00000020     BIOS_AVSDK_dsp_pe674.oe674 (.text:xdc_runtime_GateNull_query__E)
                  86d23ee0    00000020     ti.targets.rts6000.ae674 : GateNull.oe674 (.text:xdc_runtime_GateNull_query__F)
                  86d23f00    00000020     BIOS_AVSDK_dsp_pe674.oe674 (.text:xdc_runtime_Gate_enterSystem__E)
                  86d23f20    00000020     ti.targets.rts6000.ae674 : Gate.oe674 (.text:xdc_runtime_Gate_enterSystem__F)
                  86d23f40    00000020     BIOS_AVSDK_dsp_pe674.oe674 (.text:xdc_runtime_Gate_leaveSystem__E)
                  86d23f60    00000020     ti.targets.rts6000.ae674 : Gate.oe674 (.text:xdc_runtime_Gate_leaveSystem__F)
                  86d23f80    00000020     BIOS_AVSDK_dsp_pe674.oe674 (.text:xdc_runtime_IHeap_alloc)
                  86d23fa0    00000020     BIOS_AVSDK_dsp_pe674.oe674 (.text:xdc_runtime_IHeap_free)
                  86d23fc0    00000020     BIOS_AVSDK_dsp_pe674.oe674 (.text:xdc_runtime_Memory_HeapProxy_alloc__E)
                  86d23fe0    00000020     BIOS_AVSDK_dsp_pe674.oe674 (.text:xdc_runtime_Memory_HeapProxy_free__E)
                  86d24000    00000020     BIOS_AVSDK_dsp_pe674.oe674 (.text:xdc_runtime_Memory_alloc__E)
                  86d24020    00000020     BIOS_AVSDK_dsp_pe674.oe674 (.text:xdc_runtime_Memory_calloc__E)
                  86d24040    00000020     BIOS_AVSDK_dsp_pe674.oe674 (.text:xdc_runtime_Memory_free__E)
                  86d24060    00000020     BIOS_AVSDK_dsp_pe674.oe674 (.text:xdc_runtime_Memory_getMaxDefaultTypeAlign__E)
                  86d24080    00000020     ti.targets.rts6000.ae674 : Memory.oe674 (.text:xdc_runtime_Memory_getMaxDefaultTypeAlign__F)
                  86d240a0    00000020     BIOS_AVSDK_dsp_pe674.oe674 (.text:xdc_runtime_Memory_valloc__E)
                  86d240c0    00000020     BIOS_AVSDK_dsp_pe674.oe674 (.text:xdc_runtime_Registry_findById__E)
                  86d240e0    00000020     BIOS_AVSDK_dsp_pe674.oe674 (.text:xdc_runtime_Startup_Module__startupDone__S)
                  86d24100    00000020     BIOS_AVSDK_dsp_pe674.oe674 (.text:xdc_runtime_Startup_exec__E)
                  86d24120    00000020     BIOS_AVSDK_dsp_pe674.oe674 (.text:xdc_runtime_Startup_exec__I)
                  86d24140    00000020     BIOS_AVSDK_dsp_pe674.oe674 (.text:xdc_runtime_Startup_reset__I)
                  86d24160    00000020     BIOS_AVSDK_dsp_pe674.oe674 (.text:xdc_runtime_SysMin_Module_startup__E)
                  86d24180    00000020     BIOS_AVSDK_dsp_pe674.oe674 (.text:xdc_runtime_SysMin_abort__E)
                  86d241a0    00000020     BIOS_AVSDK_dsp_pe674.oe674 (.text:xdc_runtime_SysMin_exit__E)
                  86d241c0    00000020     BIOS_AVSDK_dsp_pe674.oe674 (.text:xdc_runtime_SysMin_putch__E)
                  86d241e0    00000020     BIOS_AVSDK_dsp_pe674.oe674 (.text:xdc_runtime_SysMin_ready__E)
                  86d24200    00000020     ti.targets.rts6000.ae674 : SysMin.oe674 (.text:xdc_runtime_SysMin_ready__F)
                  86d24220    00000020     BIOS_AVSDK_dsp_pe674.oe674 (.text:xdc_runtime_System_Module_GateProxy_enter__E)
                  86d24240    00000020     BIOS_AVSDK_dsp_pe674.oe674 (.text:xdc_runtime_System_Module_GateProxy_leave__E)
                  86d24260    00000020     BIOS_AVSDK_dsp_pe674.oe674 (.text:xdc_runtime_System_Module_startup__E)
                  86d24280    00000020     ti.targets.rts6000.ae674 : System.oe674 (.text:xdc_runtime_System_Module_startup__F)
                  86d242a0    00000020     BIOS_AVSDK_dsp_pe674.oe674 (.text:xdc_runtime_System_SupportProxy_abort__E)
                  86d242c0    00000020     BIOS_AVSDK_dsp_pe674.oe674 (.text:xdc_runtime_System_SupportProxy_exit__E)
                  86d242e0    00000020     BIOS_AVSDK_dsp_pe674.oe674 (.text:xdc_runtime_System_SupportProxy_putch__E)
                  86d24300    00000020     BIOS_AVSDK_dsp_pe674.oe674 (.text:xdc_runtime_System_SupportProxy_ready__E)
                  86d24320    00000020     BIOS_AVSDK_dsp_pe674.oe674 (.text:xdc_runtime_System_abort__E)
                  86d24340    00000020     BIOS_AVSDK_dsp_pe674.oe674 (.text:xdc_runtime_System_atexit__E)
                  86d24360    00000020     BIOS_AVSDK_dsp_pe674.oe674 (.text:xdc_runtime_System_exit__E)
                  86d24380    00000020     ti.targets.rts6000.ae674 : System.oe674 (.text:xdc_runtime_System_exit__F)
                  86d243a0    00000020                              : System.oe674 (.text:xdc_runtime_System_lastFxn__I)
                  86d243c0    00000020                              : System.oe674 (.text:xdc_runtime_System_sprintf_va__F)
                  86d243e0    00000020     BIOS_AVSDK_dsp_pe674.oe674 (.text:xdc_runtime_System_vsprintf__E)
                  86d24400    00000020     ti.targets.rts6000.ae674 : System.oe674 (.text:xdc_runtime_System_vsprintf__F)
                  86d24420    00000020     BIOS_AVSDK_dsp_pe674.oe674 (.text:xdc_runtime_Text_cordText__E)
                  86d24440    00000020     BIOS_AVSDK_dsp_pe674.oe674 (.text:xdc_runtime_Text_putLab__E)
                  86d24460    00000020     BIOS_AVSDK_dsp_pe674.oe674 (.text:xdc_runtime_Text_putSite__E)
                  86d24480    00000020     BIOS_AVSDK_dsp_pe674.oe674 (.text:xdc_runtime_Text_ropeText__E)
                  86d244a0    00000020     BIOS_AVSDK_dsp_pe674.oe674 (.text:xdc_runtime_Text_visitRope__I)
                  86d244c0    00000020     BIOS_AVSDK_dsp_pe674.oe674 (.text:xdc_runtime_Timestamp_SupportProxy_get32__E)
                  86d244e0    00000020     BIOS_AVSDK_dsp_pe674.oe674 (.text:xdc_runtime_Timestamp_SupportProxy_getFreq__E)
                  86d24500    00000020     BIOS_AVSDK_dsp_pe674.oe674 (.text:xdc_runtime_Timestamp_get32__E)
                  86d24520    00000020     ti.targets.rts6000.ae674 : Timestamp.oe674 (.text:xdc_runtime_Timestamp_get32__F)
                  86d24540    00000020     BIOS_AVSDK_dsp_pe674.oe674 (.text:xdc_runtime_Timestamp_getFreq__E)
                  86d24560    00000020     ti.targets.rts6000.ae674 : Timestamp.oe674 (.text:xdc_runtime_Timestamp_getFreq__F)
                  86d24580    00000020     BIOS_AVSDK_dsp_pe674.oe674 (.text:xdc_runtime_knl_GateThread_Module__startupDone__S)
                  86d245a0    00000020     BIOS_AVSDK_dsp_pe674.oe674 (.text:xdc_runtime_knl_GateThread_Proxy_Object__create__S)
                  86d245c0    00000020     BIOS_AVSDK_dsp_pe674.oe674 (.text:xdc_runtime_knl_GateThread_Proxy_Object__delete__S)
                  86d245e0    00000020     BIOS_AVSDK_dsp_pe674.oe674 (.text:xdc_runtime_knl_GateThread_Proxy_enter__E)
                  86d24600    00000020     BIOS_AVSDK_dsp_pe674.oe674 (.text:xdc_runtime_knl_GateThread_Proxy_leave__E)
                  86d24620    00000020     BIOS_AVSDK_dsp_pe674.oe674 (.text:xdc_runtime_knl_GateThread_Proxy_query__E)
                  86d24640    00000020     BIOS_AVSDK_dsp_pe674.oe674 (.text:xdc_runtime_knl_GateThread_enter__E)
                  86d24660    00000020     ti.targets.rts6000.ae674 : GateThread.oe674 (.text:xdc_runtime_knl_GateThread_enter__F)
                  86d24680    00000020     BIOS_AVSDK_dsp_pe674.oe674 (.text:xdc_runtime_knl_GateThread_leave__E)
                  86d246a0    00000020     ti.targets.rts6000.ae674 : GateThread.oe674 (.text:xdc_runtime_knl_GateThread_leave__F)
                  86d246c0    00000020     BIOS_AVSDK_dsp_pe674.oe674 (.text:xdc_runtime_knl_GateThread_query__E)
                  86d246e0    00000020     ti.targets.rts6000.ae674 : GateThread.oe674 (.text:xdc_runtime_knl_GateThread_query__F)

.fardata.2 
*          0    86d24700    00053984     
                  86d24700    00009600     dsp_app_task.obj (.fardata:yuv_car_yuv)
                  86d2dd00    00005340     dsp_app_task.obj (.fardata:yuv_warn_yuv)
                  86d33040    00003be8     dsp_app_task.obj (.fardata:yuv_title_adv_yuv)
                  86d36c28    00003be8     dsp_app_task.obj (.fardata:yuv_title_colab_yuv)
                  86d3a810    00003be8     dsp_app_task.obj (.fardata:yuv_title_menu_yuv)
                  86d3e3f8    00003be8     dsp_app_task.obj (.fardata:yuv_title_param_yuv)
                  86d41fe0    00003be8     dsp_app_task.obj (.fardata:yuv_title_upg_yuv)
                  86d45bc8    00002e98     dsp_app_task.obj (.fardata:yuv_colab_wp_h_yuv)
                  86d48a60    00002e98     dsp_app_task.obj (.fardata:yuv_colab_wp_yuv)
                  86d4b8f8    00002a30     dsp_app_task.obj (.fardata:yuv_notice2_yuv)
                  86d4e328    00002178     dsp_app_task.obj (.fardata:yuv_menu_adv_h_yuv)
                  86d504a0    00002178     dsp_app_task.obj (.fardata:yuv_menu_adv_yuv)
                  86d52618    00002178     dsp_app_task.obj (.fardata:yuv_menu_cola_h_yuv)
                  86d54790    00002178     dsp_app_task.obj (.fardata:yuv_menu_cola_yuv)
                  86d56908    00002178     dsp_app_task.obj (.fardata:yuv_menu_param_h_yuv)
                  86d58a80    00002178     dsp_app_task.obj (.fardata:yuv_menu_param_yuv)
                  86d5abf8    00002178     dsp_app_task.obj (.fardata:yuv_menu_upd_h_yuv)
                  86d5cd70    00002178     dsp_app_task.obj (.fardata:yuv_menu_upd_yuv)
                  86d5eee8    00001f00     dsp_app_task.obj (.fardata:yuv_back_yuv)
                  86d60de8    00001f00     dsp_app_task.obj (.fardata:yuv_front_yuv)
                  86d62ce8    00001f00     dsp_app_task.obj (.fardata:yuv_left_yuv)
                  86d64be8    00001f00     dsp_app_task.obj (.fardata:yuv_right_yuv)
                  86d66ae8    00001388     dsp_app_task.obj (.fardata:yuv_ret_err_yuv)
                  86d67e70    00001388     dsp_app_task.obj (.fardata:yuv_ret_ok_yuv)
                  86d691f8    00001388     dsp_app_task.obj (.fardata:yuv_tip_yuv)
                  86d6a580    00000e90     dsp_app_task.obj (.fardata:yuv_sep_yuv)
                  86d6b410    00000e38     edma3_lld_rm.ae674 : edma3_ti814x_cfg.oe674 (.fardata:edma3GblCfgParams)
                  86d6c248    00000d20                        : edma3_ti814x_cfg.oe674 (.fardata:defInstInitConfig)
                  86d6cf68    000009e0     dsp_app_task.obj (.fardata:yuv_bar_h_yuv)
                  86d6d948    000009e0     dsp_app_task.obj (.fardata:yuv_bar_yuv)
                  86d6e328    00000804     remote_debug_server.obj (.fardata)
                  86d6eb2c    00000004     rts6740_elf.lib : defs.obj (.fardata)
                  86d6eb30    00000800     ti_srv_lib.lib : iGeometricAlignmentAlgo.obj (.fardata:BRIEF_XYin)
                  86d6f330    00000800     BIOS_AVSDK_dsp_pe674.oe674 (.fardata:ti_sdo_ipc_GateMP_Module_State_0_remoteCustom1Gates__A)
                  86d6fb30    000007f0     BIOS_AVSDK_dsp_pe674.oe674 (.fardata)
                  86d70320    000007e0     edma3_lld_drv_sample.ae674 : sample_ti814x_cfg.oe674 (.fardata:sampleXbarChanInitConfig)
                  86d70b00    00000540                                : sample_ti814x_cfg.oe674 (.fardata:sampleInstInitConfig)
                  86d71040    00000508     ti_srv_lib.lib : iGeometricAlignmentAlgo.obj (.fardata:fThetaLUTin)
                  86d71548    00000434                    : iGeometricAlignmentAlgo.obj (.fardata:TTELUTin)
                  86d7197c    00000004     rts6740_elf.lib : dtor_list.obj (.fardata)
                  86d71980    00000434     dsp_app_task.obj (.fardata:VendorLUTin)
                  86d71db4    00000004     rts6740_elf.lib : errno.obj (.fardata)
                  86d71db8    00000400     ti_srv_lib.lib : iGeometricAlignmentAlgo.obj (.fardata:HSAELUTin)
                  86d721b8    000003e8     dsp_app_task.obj (.fardata:yuv_g3_yuv)
                  86d725a0    000003e8     dsp_app_task.obj (.fardata:yuv_g4_yuv)
                  86d72988    000003e8     dsp_app_task.obj (.fardata:yuv_g5_yuv)
                  86d72d70    000003e8     dsp_app_task.obj (.fardata:yuv_g6_yuv)
                  86d73158    000003e8     dsp_app_task.obj (.fardata:yuv_g7_yuv)
                  86d73540    000003e8     dsp_app_task.obj (.fardata:yuv_g8_yuv)
                  86d73928    000003e8     dsp_app_task.obj (.fardata:yuv_g9_yuv)
                  86d73d10    000003e8     dsp_app_task.obj (.fardata:yuv_red0_yuv)
                  86d740f8    000003e8     dsp_app_task.obj (.fardata:yuv_red1_yuv)
                  86d744e0    000003e8     dsp_app_task.obj (.fardata:yuv_red2_yuv)
                  86d748c8    000003e8     dsp_app_task.obj (.fardata:yuv_red3_yuv)
                  86d74cb0    000003e8     dsp_app_task.obj (.fardata:yuv_red4_yuv)
                  86d75098    000003e8     dsp_app_task.obj (.fardata:yuv_red5_yuv)
                  86d75480    000003e8     dsp_app_task.obj (.fardata:yuv_red6_yuv)
                  86d75868    000003e8     dsp_app_task.obj (.fardata:yuv_red7_yuv)
                  86d75c50    000003e8     dsp_app_task.obj (.fardata:yuv_red8_yuv)
                  86d76038    000003e8     dsp_app_task.obj (.fardata:yuv_red9_yuv)
                  86d76420    000002d8     edma3_lld_drv_sample.ae674 : sample_ti814x_cfg.oe674 (.fardata:sampleEdma3GblCfgParams)
                  86d766f8    00000280     ti_srv_lib.lib : iGeometricAlignmentAlgo.obj (.fardata:tanasinLUTin)
                  86d76978    00000200                    : ti_srv_lib.obj (.fardata:sinatanLUT)
                  86d76b78    00000200                    : iGeometricAlignmentAlgo.obj (.fardata:sinatanLUTin)
                  86d76d78    000001f4     dsp_app_task.obj (.fardata:yuv_gdot_yuv)
                  86d76f6c    00000004     rts6740_elf.lib : fopen.obj (.fardata)
                  86d76f70    000001f4     dsp_app_task.obj (.fardata:yuv_reddot_yuv)
                  86d77164    00000004     rts6740_elf.lib : lowlev.obj (.fardata)
                  86d77168    000001e0                     : defs.obj (.fardata:_ftable)
                  86d77348    00000138     dsp_app_task.obj (.fardata:aViewRegion)
                  86d77480    00000118     BIOS_AVSDK_dsp_pe674.oe674 (.fardata:ti_sdo_utils_NameServer_Object__table__V)
                  86d77598    00000100     BIOS_AVSDK_dsp_pe674.oe674 (.fardata:ti_sdo_ipc_GateMP_Module_State_0_remoteSystemGates__A)
                  86d77698    000000e4     BIOS_AVSDK_dsp_pe674.oe674 (.fardata:ti_sysbios_knl_Task_Object__table__V)
                  86d7777c    00000004     --HOLE-- [fill = 0]
                  86d77780    000000a0     rts6740_elf.lib : lowlev.obj (.fardata:_stream)
                  86d77820    00000090     dsp_app_task.obj (.fardata:persmatin)
                  86d778b0    00000080     BIOS_AVSDK_dsp_pe674.oe674 (.fardata:ti_sysbios_knl_Swi_Module_State_0_readyQ__A)
                  86d77930    00000080     BIOS_AVSDK_dsp_pe674.oe674 (.fardata:ti_sysbios_knl_Task_Module_State_0_readyQ__A)
                  86d779b0    00000078     rts6740_elf.lib : lowlev.obj (.fardata:_device)
                  86d77a28    00000078     BIOS_AVSDK_dsp_pe674.oe674 (.fardata:ti_sysbios_family_c64p_Hwi_Object__table__V)
                  86d77aa0    00000064     shared_mem_tbl_cfg.obj (.fardata)
                  86d77b04    00000004     --HOLE-- [fill = 0]
                  86d77b08    0000005c     BIOS_AVSDK_dsp_pe674.oe674 (.fardata:ti_sysbios_timers_dmtimer_Timer_Object__table__V)
                  86d77b64    00000050     dsp_app_task.obj (.fardata)
                  86d77bb4    00000004     --HOLE-- [fill = 0]
                  86d77bb8    00000050     BIOS_AVSDK_dsp_pe674.oe674 (.fardata:ti_sdo_ipc_Ipc_Module_State_0_procEntry__A)
                  86d77c08    00000048     BIOS_AVSDK_dsp_pe674.oe674 (.fardata:ti_sdo_ipc_SharedRegion_Module_State_0_regions__A)
                  86d77c50    00000040     rts6740_elf.lib : sin.obj (.fardata:R$1)
                  86d77c90    00000040                     : atan.obj (.fardata:arctan_consts$1)
                  86d77cd0    00000040     BIOS_AVSDK_dsp_pe674.oe674 (.fardata:ti_sysbios_gates_GateMutex_Object__table__V)
                  86d77d10    0000003c     BIOS_AVSDK_dsp_pe674.oe674 (.fardata:ti_sysbios_timers_dmtimer_Timer_Module_State_0_device__A)
                  86d77d4c    00000004     --HOLE-- [fill = 0]
                  86d77d50    00000030     BIOS_AVSDK_dsp_pe674.oe674 (.fardata:ti_sysbios_knl_Swi_Object__table__V)
                  86d77d80    00000028     edma3_lld_rm.ae674 : edma3resmgr.oe674 (.fardata:allocatedTCCs)
                  86d77da8    00000028     dsp_app_task.obj (.fardata:tNumPtr_Green)
                  86d77dd0    00000028     dsp_app_task.obj (.fardata:tNumPtr_Red)
                  86d77df8    00000024     ti_srv_lib.lib : SV_Synthesis_Run.obj (.fardata:rgb2yuv_Q8)
                  86d77e1c    00000004     --HOLE-- [fill = 0]
                  86d77e20    00000024                    : SV_PAlign_Run.obj (.fardata:yuv2rgb_Q8)
                  86d77e44    00000004     --HOLE-- [fill = 0]
                  86d77e48    00000024                    : SV_Synthesis_Run.obj (.fardata:yuv2rgb_Q8)
                  86d77e6c    00000004     --HOLE-- [fill = 0]
                  86d77e70    00000020     rts6740_elf.lib : atan.obj (.fardata:A$2)
                  86d77e90    00000020     edma3_lld_drv_sample.ae674 : sample_ti814x_cfg.oe674 (.fardata:ccXferCompInt)
                  86d77eb0    00000020                                : sample_ti814x_cfg.oe674 (.fardata:hwIntTcErr)
                  86d77ed0    00000020                                : sample_ti814x_int_reg.oe674 (.fardata:ptrEdma3TcIsrHandler)
                  86d77ef0    00000020                                : sample_ti814x_cfg.oe674 (.fardata:tcErrorInt)
                  86d77f10    00000020     BIOS_AVSDK_dsp_pe674.oe674 (.fardata:ti_sdo_ipc_MessageQ_Module_State_0_transports__A)
                  86d77f30    00000020     BIOS_AVSDK_dsp_pe674.oe674 (.fardata:xdc_runtime_System_Module_State_0_atexitHandlers__A)
                  86d77f50    00000018     BIOS_AVSDK_dsp_pe674.oe674 (.fardata:ti_sysbios_gates_GateMutexPri_Object__table__V)
                  86d77f68    00000018     BIOS_AVSDK_dsp_pe674.oe674 (.fardata:ti_sysbios_heaps_HeapMem_Object__table__V)
                  86d77f80    00000014     edma3_lld_rm.ae674 : edma3resmgr.oe674 (.fardata:masterExists)
                  86d77f94    00000004     --HOLE-- [fill = 0]
                  86d77f98    00000014     BIOS_AVSDK_dsp_pe674.oe674 (.fardata:ti_sysbios_timers_dmtimer_Timer_Module_State_0_handles__A)
                  86d77fac    00000004     --HOLE-- [fill = 0]
                  86d77fb0    00000010     BIOS_AVSDK_dsp_pe674.oe674 (.fardata:ti_sdo_ipc_transports_TransportShmSetup_Module_State_0_handles__A)
                  86d77fc0    00000010     BIOS_AVSDK_dsp_pe674.oe674 (.fardata:ti_sysbios_gates_GateAll_Object__table__V)
                  86d77fd0    0000000c     rts6740_elf.lib : exit.obj (.fardata)
                  86d77fdc    00000004     --HOLE-- [fill = 0]
                  86d77fe0    0000000c     BIOS_AVSDK_dsp_pe674.oe674 (.fardata:ti_sysbios_gates_GateSwi_Object__table__V)
                  86d77fec    00000008     rts6740_elf.lib : _lock.obj (.fardata)
                  86d77ff4    00000004     --HOLE-- [fill = 0]
                  86d77ff8    00000008     BIOS_AVSDK_dsp_pe674.oe674 (.fardata:ti_sdo_ipc_MessageQ_Module_State_0_heaps__A)
                  86d78000    00000008     BIOS_AVSDK_dsp_pe674.oe674 (.fardata:ti_sysbios_hal_Hwi_Object__table__V)
                  86d78008    00000008     BIOS_AVSDK_dsp_pe674.oe674 (.fardata:ti_sysbios_hal_Timer_Object__table__V)
                  86d78010    00000004     edma3_lld_drv_sample.ae674 : sample_ti814x_cfg.oe674 (.fardata:ccErrorInt)
                  86d78014    00000004     --HOLE-- [fill = 0]
                  86d78018    00000004                                : sample_ti814x_cfg.oe674 (.fardata:hwIntCcErr)
                  86d7801c    00000004     --HOLE-- [fill = 0]
                  86d78020    00000004                                : sample_ti814x_cfg.oe674 (.fardata:hwIntXferComp)
                  86d78024    00000004     --HOLE-- [fill = 0]
                  86d78028    00000004                                : sample_ti814x_cfg.oe674 (.fardata:numEdma3Tc)
                  86d7802c    00000004     --HOLE-- [fill = 0]
                  86d78030    00000004                                : sample_ti814x_cfg.oe674 (.fardata:semHandle)
                  86d78034    00000004     --HOLE-- [fill = 0]
                  86d78038    00000004     BIOS_AVSDK_dsp_pe674.oe674 (.fardata:ti_sdo_ipc_GateMP_Module_State_0_remoteCustom2Gates__A)
                  86d7803c    00000004     --HOLE-- [fill = 0]
                  86d78040    00000004     BIOS_AVSDK_dsp_pe674.oe674 (.fardata:ti_sdo_ipc_Notify_Module_State_0_notifyHandles_0__A)
                  86d78044    00000004     --HOLE-- [fill = 0]
                  86d78048    00000004     BIOS_AVSDK_dsp_pe674.oe674 (.fardata:ti_sdo_ipc_Notify_Module_State_0_notifyHandles_1__A)
                  86d7804c    00000004     --HOLE-- [fill = 0]
                  86d78050    00000004     BIOS_AVSDK_dsp_pe674.oe674 (.fardata:ti_sdo_ipc_Notify_Module_State_0_notifyHandles_2__A)
                  86d78054    00000004     --HOLE-- [fill = 0]
                  86d78058    00000004     BIOS_AVSDK_dsp_pe674.oe674 (.fardata:ti_sdo_ipc_Notify_Module_State_0_notifyHandles_3__A)
                  86d7805c    00000004     --HOLE-- [fill = 0]
                  86d78060    00000004     BIOS_AVSDK_dsp_pe674.oe674 (.fardata:ti_sysbios_gates_GateHwi_Object__table__V)
                  86d78064    00000004     --HOLE-- [fill = 0]
                  86d78068    00000004     BIOS_AVSDK_dsp_pe674.oe674 (.fardata:ti_sysbios_knl_Task_Module_State_0_idleTask__A)
                  86d7806c    00000004     --HOLE-- [fill = 0]
                  86d78070    00000004     BIOS_AVSDK_dsp_pe674.oe674 (.fardata:ti_sysbios_utils_Load_Module_State_0_runningTask__A)
                  86d78074    00000004     --HOLE-- [fill = 0]
                  86d78078    00000004     BIOS_AVSDK_dsp_pe674.oe674 (.fardata:ti_sysbios_utils_Load_Module_State_0_taskStartTime__A)
                  86d7807c    00000004     --HOLE-- [fill = 0]
                  86d78080    00000004     BIOS_AVSDK_dsp_pe674.oe674 (.fardata:xdc_runtime_GateNull_Object__table__V)

.const     0    86d78088    00012256     
                  86d78088    00002a7b     BIOS_AVSDK_dsp_pe674.oe674 (.const:xdc_runtime_Text_charTab__A)
                  86d7ab03    00000001     --HOLE-- [fill = 0]
                  86d7ab04    00000004     ti.targets.rts6000.ae674 : Assert.oe674 (.const:.string)
                  86d7ab08    00002a30     dsp_app_task.obj (.const:.string:yuv_notice1_yuv)
                  86d7d538    00002178     dsp_app_task.obj (.const:.string:yuv_menu_colab_clb_h_yuv)
                  86d7f6b0    00002178     dsp_app_task.obj (.const:.string:yuv_menu_colab_clb_yuv)
                  86d81828    00001500     dsp_app_task.obj (.const:.string:yuv_menu_photo_h_yuv)
                  86d82d28    00001500     dsp_app_task.obj (.const:.string:yuv_menu_photo_yuv)
                  86d84228    00000a5c     dsp_app_task.obj (.const:.string)
                  86d84c84    0000082c     ti_srv_lib.lib : ti_srv_lib.obj (.const:.string)
                  86d854b0    00000708     dsp_app_task.obj (.const:.string:yuv_m1_yuv)
                  86d85bb8    00000708     dsp_app_task.obj (.const:.string:yuv_m2_yuv)
                  86d862c0    000003f4     sysbios.ae674 : BIOS.obj (.const:.string)
                  86d866b4    00000004     BIOS_AVSDK_dsp_pe674.oe674 (.const:ti_sdo_ipc_GateMP_A_invalidClose__C)
                  86d866b8    000003e8     dsp_app_task.obj (.const:.string:yuv_g0_yuv)
                  86d86aa0    000003e8     dsp_app_task.obj (.const:.string:yuv_g1_yuv)
                  86d86e88    000003e8     dsp_app_task.obj (.const:.string:yuv_g2_yuv)
                  86d87270    000003ba     ti_srv_lib.lib : SV_GAlign_Run.obj (.const:.string)
                  86d8762a    00000002     --HOLE-- [fill = 0]
                  86d8762c    00000340     spansion.obj (.const:.string)
                  86d8796c    000002ae     ti_srv_lib.lib : cse.obj (.const:.string)
                  86d87c1a    00000002     --HOLE-- [fill = 0]
                  86d87c1c    000002a0     winbond.obj (.const:.string)
                  86d87ebc    000001b0     shared_mem_cfg.obj (.const:.string)
                  86d8806c    00000004     BIOS_AVSDK_dsp_pe674.oe674 (.const:ti_sdo_ipc_GateMP_A_invalidDelete__C)
                  86d88070    00000188     BIOS_AVSDK_dsp_pe674.oe674 (.const:xdc_runtime_Text_nodeTab__A)
                  86d881f8    0000017c     spi_flash.obj (.const:.string)
                  86d88374    00000004     BIOS_AVSDK_dsp_pe674.oe674 (.const:ti_sdo_ipc_GateMP_E_gateUnavailable__C)
                  86d88378    00000168     dsp_app_task.obj (.const:slope_tan)
                  86d884e0    00000140     edma_helper_funcs.obj (.const)
                  86d88620    00000101     rts6740_elf.lib : ctype.obj (.const:.string:_ctypes_)
                  86d88721    000000fd     edma3_lld_rm.ae674 : edma3resmgr.oe674 (.const)
                  86d8881e    000000fc     ti_srv_lib.lib : SV_PAlign_Run.obj (.const:.string)
                  86d8891a    00000002     --HOLE-- [fill = 0]
                  86d8891c    000000c8     omap3_spi.obj (.const:.string)
                  86d889e4    000000c4     command_queue.obj (.const:.string)
                  86d88aa8    000000b4     ti_srv_lib.lib : iGeometricAlignmentAlgo.obj (.const:.string)
                  86d88b5c    000000a3     BIOS_AVSDK_dsp_pe674.oe674 (.const:.string)
                  86d88bff    00000001     --HOLE-- [fill = 0]
                  86d88c00    0000008c     edma_helper_funcs.obj (.const:.string)
                  86d88c8c    00000081     edma3_lld_drv.ae674 : edma3_drv_init.oe674 (.const)
                  86d88d0d    00000003     rts6740_elf.lib : assert.obj (.const:.string)
                  86d88d10    00000080     spansion.obj (.const:spansion_spi_flash_table)
                  86d88d90    0000006c     ipc.ae674 : Ipc.obj (.const:.string)
                  86d88dfc    00000068     edma3_lld_drv.ae674 : edma3_drv_basic.oe674 (.const)
                  86d88e64    00000058     ti.targets.rts6000.ae674 : Error.oe674 (.const:.string)
                  86d88ebc    00000004     BIOS_AVSDK_dsp_pe674.oe674 (.const:ti_sdo_ipc_GateMP_E_localGate__C)
                  86d88ec0    00000048     BIOS_AVSDK_dsp_pe674.oe674 (.const:xdc_runtime_Startup_sfxnTab__A)
                  86d88f08    00000040     ti.targets.rts6000.ae674 : Text.oe674 (.const:.string)
                  86d88f48    00000040     winbond.obj (.const:winbond_spi_flash_table)
                  86d88f88    0000003c     dsp_app_task.obj (.const)
                  86d88fc4    0000003c     BIOS_AVSDK_dsp_pe674.oe674 (.const:ti_sysbios_knl_Task_Object__PARAMS__C)
                  86d89000    00000038     ti_srv_lib.lib : SV_Synthesis_Run.obj (.const:.string)
                  86d89038    00000038     BIOS_AVSDK_dsp_pe674.oe674 (.const:ti_sdo_ipc_heaps_HeapBufMP_Object__PARAMS__C)
                  86d89070    00000038     BIOS_AVSDK_dsp_pe674.oe674 (.const:ti_sdo_ipc_notifyDrivers_NotifyDriverShm_Module__FXNS__C)
                  86d890a8    00000034     BIOS_AVSDK_dsp_pe674.oe674 (.const:ti_sdo_ipc_GateMP_Object__PARAMS__C)
                  86d890dc    00000034     BIOS_AVSDK_dsp_pe674.oe674 (.const:ti_sdo_ipc_notifyDrivers_NotifyDriverShm_Object__PARAMS__C)
                  86d89110    00000030     BIOS_AVSDK_dsp_pe674.oe674 (.const:ti_sdo_ipc_heaps_HeapMemMP_Object__PARAMS__C)
                  86d89140    00000030     BIOS_AVSDK_dsp_pe674.oe674 (.const:ti_sysbios_family_c64p_Hwi_Object__PARAMS__C)
                  86d89170    0000002c     ti.targets.rts6000.ae674 : Startup.oe674 (.const:.string)
                  86d8919c    0000002c     BIOS_AVSDK_dsp_pe674.oe674 (.const:ti_sdo_ipc_ListMP_Object__PARAMS__C)
                  86d891c8    0000002c     BIOS_AVSDK_dsp_pe674.oe674 (.const:ti_sdo_ipc_gates_GateHWSpinlock_Module__FXNS__C)
                  86d891f4    0000002c     BIOS_AVSDK_dsp_pe674.oe674 (.const:ti_sdo_ipc_gates_GateMPSupportNull_Module__FXNS__C)
                  86d89220    0000002c     BIOS_AVSDK_dsp_pe674.oe674 (.const:ti_sdo_ipc_gates_GatePeterson_Module__FXNS__C)
                  86d8924c    00000028     BIOS_AVSDK_dsp_pe674.oe674 (.const:ti_sdo_ipc_heaps_HeapBufMP_Module__FXNS__C)
                  86d89274    00000028     BIOS_AVSDK_dsp_pe674.oe674 (.const:ti_sdo_ipc_heaps_HeapMemMP_Module__FXNS__C)
                  86d8929c    00000028     BIOS_AVSDK_dsp_pe674.oe674 (.const:ti_sdo_ipc_nsremote_NameServerRemoteNotify_Module__FXNS__C)
                  86d892c4    00000028     BIOS_AVSDK_dsp_pe674.oe674 (.const:ti_sdo_ipc_transports_TransportShm_Module__FXNS__C)
                  86d892ec    00000028     BIOS_AVSDK_dsp_pe674.oe674 (.const:ti_sdo_ipc_transports_TransportShm_Object__PARAMS__C)
                  86d89314    00000028     BIOS_AVSDK_dsp_pe674.oe674 (.const:ti_sysbios_heaps_HeapMem_Module__FXNS__C)
                  86d8933c    00000028     BIOS_AVSDK_dsp_pe674.oe674 (.const:ti_sysbios_knl_Swi_Object__PARAMS__C)
                  86d89364    00000026     ti_srv_lib.lib : iSynthesisAlgo.obj (.const:.string)
                  86d8938a    00000002     --HOLE-- [fill = 0]
                  86d8938c    00000024     BIOS_AVSDK_dsp_pe674.oe674 (.const:ti_sdo_ipc_gates_GateHWSpinlock_Object__PARAMS__C)
                  86d893b0    00000024     BIOS_AVSDK_dsp_pe674.oe674 (.const:ti_sdo_ipc_gates_GateMPSupportNull_Object__PARAMS__C)
                  86d893d4    00000024     BIOS_AVSDK_dsp_pe674.oe674 (.const:ti_sdo_ipc_gates_GatePeterson_Object__PARAMS__C)
                  86d893f8    00000024     ti_srv_lib.lib : ti_srv_lib.obj (.const)
                  86d8941c    00000024     BIOS_AVSDK_dsp_pe674.oe674 (.const:ti_sysbios_gates_GateAll_Module__FXNS__C)
                  86d89440    00000024     BIOS_AVSDK_dsp_pe674.oe674 (.const:ti_sysbios_gates_GateHwi_Module__FXNS__C)
                  86d89464    00000024     BIOS_AVSDK_dsp_pe674.oe674 (.const:ti_sysbios_gates_GateMutexPri_Module__FXNS__C)
                  86d89488    00000024     BIOS_AVSDK_dsp_pe674.oe674 (.const:ti_sysbios_gates_GateMutex_Module__FXNS__C)
                  86d894ac    00000024     BIOS_AVSDK_dsp_pe674.oe674 (.const:ti_sysbios_gates_GateSwi_Module__FXNS__C)
                  86d894d0    00000024     BIOS_AVSDK_dsp_pe674.oe674 (.const:ti_sysbios_heaps_HeapMem_Object__PARAMS__C)
                  86d894f4    00000024     BIOS_AVSDK_dsp_pe674.oe674 (.const:ti_sysbios_knl_Clock_Object__PARAMS__C)
                  86d89518    00000024     BIOS_AVSDK_dsp_pe674.oe674 (.const:ti_sysbios_knl_Semaphore_Object__PARAMS__C)
                  86d8953c    00000024     BIOS_AVSDK_dsp_pe674.oe674 (.const:ti_sysbios_syncs_SyncSem_Module__FXNS__C)
                  86d89560    00000024     BIOS_AVSDK_dsp_pe674.oe674 (.const:xdc_runtime_GateNull_Module__FXNS__C)
                  86d89584    00000004     BIOS_AVSDK_dsp_pe674.oe674 (.const:ti_sdo_ipc_GateMP_LM_create__C)
                  86d89588    00000024     BIOS_AVSDK_dsp_pe674.oe674 (.const:xdc_runtime_Startup_sfxnRts__A)
                  86d895ac    00000024     BIOS_AVSDK_dsp_pe674.oe674 (.const:xdc_runtime_knl_GateThread_Module__FXNS__C)
                  86d895d0    00000023     rts6740_elf.lib : _printfi.obj (.const:.string)
                  86d895f3    00000001     --HOLE-- [fill = 0]
                  86d895f4    00000020     ti.targets.rts6000.ae674 : Core-mem.oe674 (.const:.string)
                  86d89614    00000020     BIOS_AVSDK_dsp_pe674.oe674 (.const:ti_sdo_ipc_GateMP_Object__DESC__C)
                  86d89634    00000020     BIOS_AVSDK_dsp_pe674.oe674 (.const:ti_sdo_ipc_ListMP_Object__DESC__C)
                  86d89654    00000020     BIOS_AVSDK_dsp_pe674.oe674 (.const:ti_sdo_ipc_MessageQ_Object__DESC__C)
                  86d89674    00000020     BIOS_AVSDK_dsp_pe674.oe674 (.const:ti_sdo_ipc_Notify_Object__DESC__C)
                  86d89694    00000020     BIOS_AVSDK_dsp_pe674.oe674 (.const:ti_sdo_ipc_gates_GateHWSpinlock_Object__DESC__C)
                  86d896b4    00000020     BIOS_AVSDK_dsp_pe674.oe674 (.const:ti_sdo_ipc_gates_GateMPSupportNull_Object__DESC__C)
                  86d896d4    00000020     BIOS_AVSDK_dsp_pe674.oe674 (.const:ti_sdo_ipc_gates_GatePeterson_Object__DESC__C)
                  86d896f4    00000020     BIOS_AVSDK_dsp_pe674.oe674 (.const:ti_sdo_ipc_heaps_HeapBufMP_Object__DESC__C)
                  86d89714    00000020     BIOS_AVSDK_dsp_pe674.oe674 (.const:ti_sdo_ipc_heaps_HeapMemMP_Object__DESC__C)
                  86d89734    00000020     BIOS_AVSDK_dsp_pe674.oe674 (.const:ti_sdo_ipc_notifyDrivers_NotifyDriverShm_Object__DESC__C)
                  86d89754    00000020     BIOS_AVSDK_dsp_pe674.oe674 (.const:ti_sdo_ipc_nsremote_NameServerRemoteNotify_Object__DESC__C)
                  86d89774    00000020     BIOS_AVSDK_dsp_pe674.oe674 (.const:ti_sdo_ipc_nsremote_NameServerRemoteNotify_Object__PARAMS__C)
                  86d89794    00000020     BIOS_AVSDK_dsp_pe674.oe674 (.const:ti_sdo_ipc_transports_TransportShm_Object__DESC__C)
                  86d897b4    00000020     BIOS_AVSDK_dsp_pe674.oe674 (.const:ti_sdo_utils_List_Object__DESC__C)
                  86d897d4    00000020     BIOS_AVSDK_dsp_pe674.oe674 (.const:ti_sysbios_family_c64p_Hwi_Object__DESC__C)
                  86d897f4    00000020     BIOS_AVSDK_dsp_pe674.oe674 (.const:ti_sysbios_gates_GateAll_Object__DESC__C)
                  86d89814    00000020     BIOS_AVSDK_dsp_pe674.oe674 (.const:ti_sysbios_gates_GateHwi_Object__DESC__C)
                  86d89834    00000020     BIOS_AVSDK_dsp_pe674.oe674 (.const:ti_sysbios_gates_GateMutexPri_Object__DESC__C)
                  86d89854    00000020     BIOS_AVSDK_dsp_pe674.oe674 (.const:ti_sysbios_gates_GateMutex_Object__DESC__C)
                  86d89874    00000020     BIOS_AVSDK_dsp_pe674.oe674 (.const:ti_sysbios_gates_GateSwi_Object__DESC__C)
                  86d89894    00000020     BIOS_AVSDK_dsp_pe674.oe674 (.const:ti_sysbios_heaps_HeapMem_Object__DESC__C)
                  86d898b4    00000020     BIOS_AVSDK_dsp_pe674.oe674 (.const:ti_sysbios_knl_Clock_Object__DESC__C)
                  86d898d4    00000020     BIOS_AVSDK_dsp_pe674.oe674 (.const:ti_sysbios_knl_Queue_Object__DESC__C)
                  86d898f4    00000020     BIOS_AVSDK_dsp_pe674.oe674 (.const:ti_sysbios_knl_Semaphore_Object__DESC__C)
                  86d89914    00000020     BIOS_AVSDK_dsp_pe674.oe674 (.const:ti_sysbios_knl_Swi_Object__DESC__C)
                  86d89934    00000020     BIOS_AVSDK_dsp_pe674.oe674 (.const:ti_sysbios_knl_Task_Object__DESC__C)
                  86d89954    00000020     BIOS_AVSDK_dsp_pe674.oe674 (.const:ti_sysbios_syncs_SyncSem_Object__DESC__C)
                  86d89974    00000020     BIOS_AVSDK_dsp_pe674.oe674 (.const:ti_sysbios_xdcruntime_GateThreadSupport_Object__DESC__C)
                  86d89994    00000020     BIOS_AVSDK_dsp_pe674.oe674 (.const:xdc_runtime_GateNull_Object__DESC__C)
                  86d899b4    00000020     BIOS_AVSDK_dsp_pe674.oe674 (.const:xdc_runtime_knl_GateThread_Object__DESC__C)
                  86d899d4    0000001c     BIOS_AVSDK_dsp_pe674.oe674 (.const:ti_sdo_ipc_MessageQ_Object__PARAMS__C)
                  86d899f0    0000001c     BIOS_AVSDK_dsp_pe674.oe674 (.const:ti_sysbios_syncs_SyncSem_Object__PARAMS__C)
                  86d89a0c    0000001b     ti_srv_lib.lib : iPhotometricAlignmentAlgo.obj (.const:.string)
                  86d89a27    00000001     --HOLE-- [fill = 0]
                  86d89a28    00000018     BIOS_AVSDK_dsp_pe674.oe674 (.const:ti_sdo_ipc_Notify_Object__PARAMS__C)
                  86d89a40    00000018     BIOS_AVSDK_dsp_pe674.oe674 (.const:ti_sdo_utils_List_Object__PARAMS__C)
                  86d89a58    00000018     BIOS_AVSDK_dsp_pe674.oe674 (.const:ti_sysbios_gates_GateAll_Object__PARAMS__C)
                  86d89a70    00000018     BIOS_AVSDK_dsp_pe674.oe674 (.const:ti_sysbios_gates_GateHwi_Object__PARAMS__C)
                  86d89a88    00000018     BIOS_AVSDK_dsp_pe674.oe674 (.const:ti_sysbios_gates_GateMutexPri_Object__PARAMS__C)
                  86d89aa0    00000018     BIOS_AVSDK_dsp_pe674.oe674 (.const:ti_sysbios_gates_GateMutex_Object__PARAMS__C)
                  86d89ab8    00000018     BIOS_AVSDK_dsp_pe674.oe674 (.const:ti_sysbios_gates_GateSwi_Object__PARAMS__C)
                  86d89ad0    00000018     BIOS_AVSDK_dsp_pe674.oe674 (.const:ti_sysbios_knl_Queue_Object__PARAMS__C)
                  86d89ae8    00000018     BIOS_AVSDK_dsp_pe674.oe674 (.const:ti_sysbios_knl_Swi_hooks__A)
                  86d89b00    00000018     BIOS_AVSDK_dsp_pe674.oe674 (.const:ti_sysbios_knl_Task_hooks__A)
                  86d89b18    00000018     BIOS_AVSDK_dsp_pe674.oe674 (.const:ti_sysbios_xdcruntime_GateThreadSupport_Object__PARAMS__C)
                  86d89b30    00000018     BIOS_AVSDK_dsp_pe674.oe674 (.const:xdc_runtime_GateNull_Object__PARAMS__C)
                  86d89b48    00000018     BIOS_AVSDK_dsp_pe674.oe674 (.const:xdc_runtime_knl_GateThread_Object__PARAMS__C)
                  86d89b60    00000014     BIOS_AVSDK_dsp_pe674.oe674 (.const:ti_sysbios_family_c64p_Hwi_hooks__A)
                  86d89b74    00000004     BIOS_AVSDK_dsp_pe674.oe674 (.const:ti_sdo_ipc_GateMP_LM_delete__C)
                  86d89b78    00000011     ti.targets.rts6000.ae674 : System.oe674 (.const:digtohex)
                  86d89b89    00000003     --HOLE-- [fill = 0]
                  86d89b8c    00000004     BIOS_AVSDK_dsp_pe674.oe674 (.const:ti_sdo_ipc_GateMP_LM_enter__C)
                  86d89b90    00000010     BIOS_AVSDK_dsp_pe674.oe674 (.const:ti_sdo_utils_MultiProc_nameList__A)
                  86d89ba0    00000010     BIOS_AVSDK_dsp_pe674.oe674 (.const:ti_sysbios_family_c64p_EventCombiner_EVTMASK__C)
                  86d89bb0    0000000e     ti_srv_lib.lib : ti_srv_lib.obj (.const:.string:__FUNCTION__$1)
                  86d89bbe    00000002     --HOLE-- [fill = 0]
                  86d89bc0    0000000c     BIOS_AVSDK_dsp_pe674.oe674 (.const:ti_sdo_ipc_Ipc_userFxns__A)
                  86d89bcc    0000000c     BIOS_AVSDK_dsp_pe674.oe674 (.const:ti_sysbios_family_c64p_Cache_initSize__C)
                  86d89bd8    00000008     ti.targets.rts6000.ae674 : System.oe674 (.const:.string)
                  86d89be0    00000008     BIOS_AVSDK_dsp_pe674.oe674 (.const:ti_sdo_ipc_gates_GateHWSpinlock_reservedMaskArr__A)
                  86d89be8    00000008     BIOS_AVSDK_dsp_pe674.oe674 (.const:ti_sdo_utils_MultiProc_procIdList__A)
                  86d89bf0    00000008     BIOS_AVSDK_dsp_pe674.oe674 (.const:ti_sysbios_family_c64p_Hwi_hooks__C)
                  86d89bf8    00000008     BIOS_AVSDK_dsp_pe674.oe674 (.const:ti_sysbios_knl_Idle_coreList__C)
                  86d89c00    00000008     BIOS_AVSDK_dsp_pe674.oe674 (.const:ti_sysbios_knl_Idle_funcList__C)
                  86d89c08    00000008     BIOS_AVSDK_dsp_pe674.oe674 (.const:ti_sysbios_knl_Swi_hooks__C)
                  86d89c10    00000008     BIOS_AVSDK_dsp_pe674.oe674 (.const:ti_sysbios_knl_Task_hooks__C)
                  86d89c18    00000008     BIOS_AVSDK_dsp_pe674.oe674 (.const:xdc_runtime_Startup_firstFxns__C)
                  86d89c20    00000008     BIOS_AVSDK_dsp_pe674.oe674 (.const:xdc_runtime_Startup_lastFxns__C)
                  86d89c28    00000004     winbond.obj (.const:.string:$P$T1$1)
                  86d89c2c    00000004     BIOS_AVSDK_dsp_pe674.oe674 (.const:ti_sdo_ipc_GateMP_LM_leave__C)
                  86d89c30    00000004     BIOS_AVSDK_dsp_pe674.oe674 (.const:ti_sdo_ipc_GateMP_LM_open__C)
                  86d89c34    00000004     BIOS_AVSDK_dsp_pe674.oe674 (.const:ti_sdo_ipc_GateMP_Module__diagsEnabled__C)
                  86d89c38    00000004     BIOS_AVSDK_dsp_pe674.oe674 (.const:ti_sdo_ipc_GateMP_Module__diagsIncluded__C)
                  86d89c3c    00000004     BIOS_AVSDK_dsp_pe674.oe674 (.const:ti_sdo_ipc_GateMP_Module__diagsMask__C)
                  86d89c40    00000004     BIOS_AVSDK_dsp_pe674.oe674 (.const:ti_sdo_ipc_GateMP_Module__loggerFxn2__C)
                  86d89c44    00000004     BIOS_AVSDK_dsp_pe674.oe674 (.const:ti_sdo_ipc_GateMP_Module__loggerFxn4__C)
                  86d89c48    00000004     BIOS_AVSDK_dsp_pe674.oe674 (.const:ti_sdo_ipc_GateMP_Module__loggerObj__C)
                  86d89c4c    00000004     BIOS_AVSDK_dsp_pe674.oe674 (.const:ti_sdo_ipc_Ipc_A_addrNotCacheAligned__C)
                  86d89c50    00000004     BIOS_AVSDK_dsp_pe674.oe674 (.const:ti_sdo_ipc_Ipc_A_addrNotInSharedRegion__C)
                  86d89c54    00000004     BIOS_AVSDK_dsp_pe674.oe674 (.const:ti_sdo_ipc_Ipc_A_internal__C)
                  86d89c58    00000004     BIOS_AVSDK_dsp_pe674.oe674 (.const:ti_sdo_ipc_Ipc_A_invArgument__C)
                  86d89c5c    00000004     BIOS_AVSDK_dsp_pe674.oe674 (.const:ti_sdo_ipc_Ipc_A_invParam__C)
                  86d89c60    00000004     BIOS_AVSDK_dsp_pe674.oe674 (.const:ti_sdo_ipc_Ipc_A_nullArgument__C)
                  86d89c64    00000004     BIOS_AVSDK_dsp_pe674.oe674 (.const:ti_sdo_ipc_Ipc_A_nullPointer__C)
                  86d89c68    00000004     BIOS_AVSDK_dsp_pe674.oe674 (.const:ti_sdo_ipc_Ipc_E_internal__C)
                  86d89c6c    00000004     BIOS_AVSDK_dsp_pe674.oe674 (.const:ti_sdo_ipc_Ipc_E_nameFailed__C)
                  86d89c70    00000004     BIOS_AVSDK_dsp_pe674.oe674 (.const:ti_sdo_ipc_Ipc_E_versionMismatch__C)
                  86d89c74    00000004     BIOS_AVSDK_dsp_pe674.oe674 (.const:ti_sdo_ipc_Ipc_Module__diagsEnabled__C)
                  86d89c78    00000004     BIOS_AVSDK_dsp_pe674.oe674 (.const:ti_sdo_ipc_Ipc_Module__diagsIncluded__C)
                  86d89c7c    00000004     BIOS_AVSDK_dsp_pe674.oe674 (.const:ti_sdo_ipc_Ipc_Module__diagsMask__C)
                  86d89c80    00000004     BIOS_AVSDK_dsp_pe674.oe674 (.const:ti_sdo_ipc_Ipc_numUserFxns__C)
                  86d89c84    00000004     BIOS_AVSDK_dsp_pe674.oe674 (.const:ti_sdo_ipc_Ipc_procSync__C)
                  86d89c88    00000004     BIOS_AVSDK_dsp_pe674.oe674 (.const:ti_sdo_ipc_Ipc_userFxns__C)
                  86d89c8c    00000004     BIOS_AVSDK_dsp_pe674.oe674 (.const:ti_sdo_ipc_ListMP_Module__diagsEnabled__C)
                  86d89c90    00000004     BIOS_AVSDK_dsp_pe674.oe674 (.const:ti_sdo_ipc_ListMP_Module__diagsIncluded__C)
                  86d89c94    00000004     BIOS_AVSDK_dsp_pe674.oe674 (.const:ti_sdo_ipc_ListMP_Module__diagsMask__C)
                  86d89c98    00000004     BIOS_AVSDK_dsp_pe674.oe674 (.const:ti_sdo_ipc_MessageQ_A_heapIdInvalid__C)
                  86d89c9c    00000004     BIOS_AVSDK_dsp_pe674.oe674 (.const:ti_sdo_ipc_MessageQ_A_invalidMsg__C)
                  86d89ca0    00000004     BIOS_AVSDK_dsp_pe674.oe674 (.const:ti_sdo_ipc_MessageQ_A_invalidObj__C)
                  86d89ca4    00000004     BIOS_AVSDK_dsp_pe674.oe674 (.const:ti_sdo_ipc_MessageQ_A_invalidParam__C)
                  86d89ca8    00000004     BIOS_AVSDK_dsp_pe674.oe674 (.const:ti_sdo_ipc_MessageQ_A_invalidQueueId__C)
                  86d89cac    00000004     BIOS_AVSDK_dsp_pe674.oe674 (.const:ti_sdo_ipc_MessageQ_A_procIdInvalid__C)
                  86d89cb0    00000004     BIOS_AVSDK_dsp_pe674.oe674 (.const:ti_sdo_ipc_MessageQ_A_unregisteredTransport__C)
                  86d89cb4    00000004     BIOS_AVSDK_dsp_pe674.oe674 (.const:ti_sdo_ipc_MessageQ_E_maxReached__C)
                  86d89cb8    00000004     BIOS_AVSDK_dsp_pe674.oe674 (.const:ti_sdo_ipc_MessageQ_E_nameFailed__C)
                  86d89cbc    00000004     BIOS_AVSDK_dsp_pe674.oe674 (.const:ti_sdo_ipc_MessageQ_Instance_State_highList__O)
                  86d89cc0    00000004     BIOS_AVSDK_dsp_pe674.oe674 (.const:ti_sdo_ipc_MessageQ_Instance_State_normalList__O)
                  86d89cc4    00000004     BIOS_AVSDK_dsp_pe674.oe674 (.const:ti_sdo_ipc_MessageQ_LM_get__C)
                  86d89cc8    00000004     BIOS_AVSDK_dsp_pe674.oe674 (.const:ti_sdo_ipc_MessageQ_LM_putLocal__C)
                  86d89ccc    00000004     BIOS_AVSDK_dsp_pe674.oe674 (.const:ti_sdo_ipc_MessageQ_Module__diagsEnabled__C)
                  86d89cd0    00000004     BIOS_AVSDK_dsp_pe674.oe674 (.const:ti_sdo_ipc_MessageQ_Module__diagsIncluded__C)
                  86d89cd4    00000004     BIOS_AVSDK_dsp_pe674.oe674 (.const:ti_sdo_ipc_MessageQ_Module__diagsMask__C)
                  86d89cd8    00000004     BIOS_AVSDK_dsp_pe674.oe674 (.const:ti_sdo_ipc_MessageQ_Module__loggerFxn4__C)
                  86d89cdc    00000004     BIOS_AVSDK_dsp_pe674.oe674 (.const:ti_sdo_ipc_MessageQ_Module__loggerObj__C)
                  86d89ce0    00000004     BIOS_AVSDK_dsp_pe674.oe674 (.const:ti_sdo_ipc_MessageQ_Object__count__C)
                  86d89ce4    00000004     BIOS_AVSDK_dsp_pe674.oe674 (.const:ti_sdo_ipc_MessageQ_Object__heap__C)
                  86d89ce8    00000004     BIOS_AVSDK_dsp_pe674.oe674 (.const:ti_sdo_ipc_MessageQ_maxRuntimeEntries__C)
                  86d89cec    00000004     BIOS_AVSDK_dsp_pe674.oe674 (.const:ti_sdo_ipc_Notify_A_alreadyRegistered__C)
                  86d89cf0    00000004     BIOS_AVSDK_dsp_pe674.oe674 (.const:ti_sdo_ipc_Notify_A_internal__C)
                  86d89cf4    00000004     BIOS_AVSDK_dsp_pe674.oe674 (.const:ti_sdo_ipc_Notify_A_invArgument__C)
                  86d89cf8    00000004     BIOS_AVSDK_dsp_pe674.oe674 (.const:ti_sdo_ipc_Notify_A_notRegistered__C)
                  86d89cfc    00000004     BIOS_AVSDK_dsp_pe674.oe674 (.const:ti_sdo_ipc_Notify_A_reservedEvent__C)
                  86d89d00    00000004     BIOS_AVSDK_dsp_pe674.oe674 (.const:ti_sdo_ipc_Notify_Module__diagsEnabled__C)
                  86d89d04    00000004     BIOS_AVSDK_dsp_pe674.oe674 (.const:ti_sdo_ipc_Notify_Module__diagsIncluded__C)
                  86d89d08    00000004     BIOS_AVSDK_dsp_pe674.oe674 (.const:ti_sdo_ipc_Notify_Module__diagsMask__C)
                  86d89d0c    00000004     BIOS_AVSDK_dsp_pe674.oe674 (.const:ti_sdo_ipc_Notify_Module__gateObj__C)
                  86d89d10    00000004     BIOS_AVSDK_dsp_pe674.oe674 (.const:ti_sdo_ipc_Notify_Object__heap__C)
                  86d89d14    00000004     BIOS_AVSDK_dsp_pe674.oe674 (.const:ti_sdo_ipc_Notify_numEvents__C)
                  86d89d18    00000004     BIOS_AVSDK_dsp_pe674.oe674 (.const:ti_sdo_ipc_Notify_sendEventPollCount__C)
                  86d89d1c    00000004     BIOS_AVSDK_dsp_pe674.oe674 (.const:ti_sdo_ipc_SharedRegion_A_addrOutOfRange__C)
                  86d89d20    00000004     BIOS_AVSDK_dsp_pe674.oe674 (.const:ti_sdo_ipc_SharedRegion_A_alreadyExists__C)
                  86d89d24    00000004     BIOS_AVSDK_dsp_pe674.oe674 (.const:ti_sdo_ipc_SharedRegion_A_cacheLineSizeIsZero__C)
                  86d89d28    00000004     BIOS_AVSDK_dsp_pe674.oe674 (.const:ti_sdo_ipc_SharedRegion_A_idTooLarge__C)
                  86d89d2c    00000004     BIOS_AVSDK_dsp_pe674.oe674 (.const:ti_sdo_ipc_SharedRegion_A_noHeap__C)
                  86d89d30    00000004     BIOS_AVSDK_dsp_pe674.oe674 (.const:ti_sdo_ipc_SharedRegion_A_overlap__C)
                  86d89d34    00000004     BIOS_AVSDK_dsp_pe674.oe674 (.const:ti_sdo_ipc_SharedRegion_A_region0Clear__C)
                  86d89d38    00000004     BIOS_AVSDK_dsp_pe674.oe674 (.const:ti_sdo_ipc_SharedRegion_A_region0Invalid__C)
                  86d89d3c    00000004     BIOS_AVSDK_dsp_pe674.oe674 (.const:ti_sdo_ipc_SharedRegion_A_regionInvalid__C)
                  86d89d40    00000004     BIOS_AVSDK_dsp_pe674.oe674 (.const:ti_sdo_ipc_SharedRegion_A_reserveTooMuch__C)
                  86d89d44    00000004     BIOS_AVSDK_dsp_pe674.oe674 (.const:ti_sdo_ipc_SharedRegion_INVALIDSRPTR__C)
                  86d89d48    00000004     BIOS_AVSDK_dsp_pe674.oe674 (.const:ti_sdo_ipc_SharedRegion_Module__diagsEnabled__C)
                  86d89d4c    00000004     BIOS_AVSDK_dsp_pe674.oe674 (.const:ti_sdo_ipc_SharedRegion_Module__diagsIncluded__C)
                  86d89d50    00000004     BIOS_AVSDK_dsp_pe674.oe674 (.const:ti_sdo_ipc_SharedRegion_Module__diagsMask__C)
                  86d89d54    00000004     BIOS_AVSDK_dsp_pe674.oe674 (.const:ti_sdo_ipc_SharedRegion_cacheLineSize__C)
                  86d89d58    00000004     BIOS_AVSDK_dsp_pe674.oe674 (.const:ti_sdo_ipc_SharedRegion_numOffsetBits__C)
                  86d89d5c    00000004     BIOS_AVSDK_dsp_pe674.oe674 (.const:ti_sdo_ipc_SharedRegion_offsetMask__C)
                  86d89d60    00000004     BIOS_AVSDK_dsp_pe674.oe674 (.const:ti_sdo_ipc_family_c6a8149_InterruptDsp_Module__diagsEnabled__C)
                  86d89d64    00000004     BIOS_AVSDK_dsp_pe674.oe674 (.const:ti_sdo_ipc_family_c6a8149_InterruptDsp_Module__diagsIncluded__C)
                  86d89d68    00000004     BIOS_AVSDK_dsp_pe674.oe674 (.const:ti_sdo_ipc_family_c6a8149_InterruptDsp_Module__diagsMask__C)
                  86d89d6c    00000004     BIOS_AVSDK_dsp_pe674.oe674 (.const:ti_sdo_ipc_family_c6a8149_InterruptDsp_eveProcId__C)
                  86d89d70    00000004     BIOS_AVSDK_dsp_pe674.oe674 (.const:ti_sdo_ipc_family_c6a8149_InterruptDsp_hostProcId__C)
                  86d89d74    00000004     BIOS_AVSDK_dsp_pe674.oe674 (.const:ti_sdo_ipc_family_c6a8149_InterruptDsp_mailboxBaseAddr__C)
                  86d89d78    00000004     BIOS_AVSDK_dsp_pe674.oe674 (.const:ti_sdo_ipc_family_c6a8149_InterruptDsp_mailboxEveBaseAddr__C)
                  86d89d7c    00000004     BIOS_AVSDK_dsp_pe674.oe674 (.const:ti_sdo_ipc_family_c6a8149_InterruptDsp_videoProcId__C)
                  86d89d80    00000004     BIOS_AVSDK_dsp_pe674.oe674 (.const:ti_sdo_ipc_family_c6a8149_InterruptDsp_vpssProcId__C)
                  86d89d84    00000004     BIOS_AVSDK_dsp_pe674.oe674 (.const:ti_sdo_ipc_family_c6a8149_NotifySetup_dspIntVectIdForEve__C)
                  86d89d88    00000004     BIOS_AVSDK_dsp_pe674.oe674 (.const:ti_sdo_ipc_family_c6a8149_NotifySetup_dspIntVectId__C)
                  86d89d8c    00000004     BIOS_AVSDK_dsp_pe674.oe674 (.const:ti_sdo_ipc_family_c6a8149_NotifySetup_dspProcId__C)
                  86d89d90    00000004     BIOS_AVSDK_dsp_pe674.oe674 (.const:ti_sdo_ipc_family_c6a8149_NotifySetup_eveIntVectId__C)
                  86d89d94    00000004     BIOS_AVSDK_dsp_pe674.oe674 (.const:ti_sdo_ipc_family_c6a8149_NotifySetup_eveProcId__C)
                  86d89d98    00000004     BIOS_AVSDK_dsp_pe674.oe674 (.const:ti_sdo_ipc_family_c6a8149_NotifySetup_videoProcId__C)
                  86d89d9c    00000004     BIOS_AVSDK_dsp_pe674.oe674 (.const:ti_sdo_ipc_family_c6a8149_NotifySetup_vpssProcId__C)
                  86d89da0    00000004     BIOS_AVSDK_dsp_pe674.oe674 (.const:ti_sdo_ipc_gates_GateHWSpinlock_A_invSpinLockNum__C)
                  86d89da4    00000004     BIOS_AVSDK_dsp_pe674.oe674 (.const:ti_sdo_ipc_gates_GateHWSpinlock_LM_create__C)
                  86d89da8    00000004     BIOS_AVSDK_dsp_pe674.oe674 (.const:ti_sdo_ipc_gates_GateHWSpinlock_LM_enter__C)
                  86d89dac    00000004     BIOS_AVSDK_dsp_pe674.oe674 (.const:ti_sdo_ipc_gates_GateHWSpinlock_LM_leave__C)
                  86d89db0    00000004     BIOS_AVSDK_dsp_pe674.oe674 (.const:ti_sdo_ipc_gates_GateHWSpinlock_LM_open__C)
                  86d89db4    00000004     BIOS_AVSDK_dsp_pe674.oe674 (.const:ti_sdo_ipc_gates_GateHWSpinlock_Module__diagsEnabled__C)
                  86d89db8    00000004     BIOS_AVSDK_dsp_pe674.oe674 (.const:ti_sdo_ipc_gates_GateHWSpinlock_Module__diagsIncluded__C)
                  86d89dbc    00000004     BIOS_AVSDK_dsp_pe674.oe674 (.const:ti_sdo_ipc_gates_GateHWSpinlock_Module__diagsMask__C)
                  86d89dc0    00000004     BIOS_AVSDK_dsp_pe674.oe674 (.const:ti_sdo_ipc_gates_GateHWSpinlock_Module__loggerFxn1__C)
                  86d89dc4    00000004     BIOS_AVSDK_dsp_pe674.oe674 (.const:ti_sdo_ipc_gates_GateHWSpinlock_Module__loggerFxn2__C)
                  86d89dc8    00000004     BIOS_AVSDK_dsp_pe674.oe674 (.const:ti_sdo_ipc_gates_GateHWSpinlock_Module__loggerObj__C)
                  86d89dcc    00000004     BIOS_AVSDK_dsp_pe674.oe674 (.const:ti_sdo_ipc_gates_GateHWSpinlock_baseAddr__C)
                  86d89dd0    00000004     BIOS_AVSDK_dsp_pe674.oe674 (.const:ti_sdo_ipc_gates_GateHWSpinlock_numLocks__C)
                  86d89dd4    00000004     BIOS_AVSDK_dsp_pe674.oe674 (.const:ti_sdo_ipc_gates_GateHWSpinlock_reservedMaskArr__C)
                  86d89dd8    00000004     BIOS_AVSDK_dsp_pe674.oe674 (.const:ti_sdo_ipc_gates_GateMPSupportNull_A_invalidAction__C)
                  86d89ddc    00000004     BIOS_AVSDK_dsp_pe674.oe674 (.const:ti_sdo_ipc_gates_GateMPSupportNull_Module__diagsEnabled__C)
                  86d89de0    00000004     BIOS_AVSDK_dsp_pe674.oe674 (.const:ti_sdo_ipc_gates_GateMPSupportNull_Module__diagsIncluded__C)
                  86d89de4    00000004     BIOS_AVSDK_dsp_pe674.oe674 (.const:ti_sdo_ipc_gates_GateMPSupportNull_Module__diagsMask__C)
                  86d89de8    00000004     BIOS_AVSDK_dsp_pe674.oe674 (.const:ti_sdo_ipc_gates_GateMPSupportNull_action__C)
                  86d89dec    00000004     BIOS_AVSDK_dsp_pe674.oe674 (.const:ti_sdo_ipc_gates_GatePeterson_E_gateRemotelyOpened__C)
                  86d89df0    00000004     BIOS_AVSDK_dsp_pe674.oe674 (.const:ti_sdo_ipc_gates_GatePeterson_Module__diagsEnabled__C)
                  86d89df4    00000004     BIOS_AVSDK_dsp_pe674.oe674 (.const:ti_sdo_ipc_gates_GatePeterson_Module__diagsIncluded__C)
                  86d89df8    00000004     BIOS_AVSDK_dsp_pe674.oe674 (.const:ti_sdo_ipc_gates_GatePeterson_Module__diagsMask__C)
                  86d89dfc    00000004     BIOS_AVSDK_dsp_pe674.oe674 (.const:ti_sdo_ipc_gates_GatePeterson_numInstances__C)
                  86d89e00    00000004     BIOS_AVSDK_dsp_pe674.oe674 (.const:ti_sdo_ipc_heaps_HeapBufMP_A_badAlignment__C)
                  86d89e04    00000004     BIOS_AVSDK_dsp_pe674.oe674 (.const:ti_sdo_ipc_heaps_HeapBufMP_A_invBlockFreed__C)
                  86d89e08    00000004     BIOS_AVSDK_dsp_pe674.oe674 (.const:ti_sdo_ipc_heaps_HeapBufMP_E_alignTooLarge__C)
                  86d89e0c    00000004     BIOS_AVSDK_dsp_pe674.oe674 (.const:ti_sdo_ipc_heaps_HeapBufMP_E_exactFail__C)
                  86d89e10    00000004     BIOS_AVSDK_dsp_pe674.oe674 (.const:ti_sdo_ipc_heaps_HeapBufMP_E_noBlocksLeft__C)
                  86d89e14    00000004     BIOS_AVSDK_dsp_pe674.oe674 (.const:ti_sdo_ipc_heaps_HeapBufMP_E_sizeTooLarge__C)
                  86d89e18    00000004     BIOS_AVSDK_dsp_pe674.oe674 (.const:ti_sdo_ipc_heaps_HeapBufMP_Module__diagsEnabled__C)
                  86d89e1c    00000004     BIOS_AVSDK_dsp_pe674.oe674 (.const:ti_sdo_ipc_heaps_HeapBufMP_Module__diagsIncluded__C)
                  86d89e20    00000004     BIOS_AVSDK_dsp_pe674.oe674 (.const:ti_sdo_ipc_heaps_HeapBufMP_Module__diagsMask__C)
                  86d89e24    00000004     BIOS_AVSDK_dsp_pe674.oe674 (.const:ti_sdo_ipc_heaps_HeapMemMP_A_align__C)
                  86d89e28    00000004     BIOS_AVSDK_dsp_pe674.oe674 (.const:ti_sdo_ipc_heaps_HeapMemMP_A_heapSize__C)
                  86d89e2c    00000004     BIOS_AVSDK_dsp_pe674.oe674 (.const:ti_sdo_ipc_heaps_HeapMemMP_A_invalidFree__C)
                  86d89e30    00000004     BIOS_AVSDK_dsp_pe674.oe674 (.const:ti_sdo_ipc_heaps_HeapMemMP_A_zeroBlock__C)
                  86d89e34    00000004     BIOS_AVSDK_dsp_pe674.oe674 (.const:ti_sdo_ipc_heaps_HeapMemMP_E_memory__C)
                  86d89e38    00000004     BIOS_AVSDK_dsp_pe674.oe674 (.const:ti_sdo_ipc_heaps_HeapMemMP_Module__diagsEnabled__C)
                  86d89e3c    00000004     BIOS_AVSDK_dsp_pe674.oe674 (.const:ti_sdo_ipc_heaps_HeapMemMP_Module__diagsIncluded__C)
                  86d89e40    00000004     BIOS_AVSDK_dsp_pe674.oe674 (.const:ti_sdo_ipc_heaps_HeapMemMP_Module__diagsMask__C)
                  86d89e44    00000004     BIOS_AVSDK_dsp_pe674.oe674 (.const:ti_sdo_ipc_interfaces_IGateMPSupport_Interface__BASE__C)
                  86d89e48    00000004     BIOS_AVSDK_dsp_pe674.oe674 (.const:ti_sdo_ipc_interfaces_IMessageQTransport_Interface__BASE__C)
                  86d89e4c    00000004     BIOS_AVSDK_dsp_pe674.oe674 (.const:ti_sdo_ipc_interfaces_INotifyDriver_Interface__BASE__C)
                  86d89e50    00000004     BIOS_AVSDK_dsp_pe674.oe674 (.const:ti_sdo_ipc_notifyDrivers_NotifyDriverShm_Module__diagsEnabled__C)
                  86d89e54    00000004     BIOS_AVSDK_dsp_pe674.oe674 (.const:ti_sdo_ipc_notifyDrivers_NotifyDriverShm_Module__diagsIncluded__C)
                  86d89e58    00000004     BIOS_AVSDK_dsp_pe674.oe674 (.const:ti_sdo_ipc_notifyDrivers_NotifyDriverShm_Module__diagsMask__C)
                  86d89e5c    00000004     BIOS_AVSDK_dsp_pe674.oe674 (.const:ti_sdo_ipc_notifyDrivers_NotifyDriverShm_Object__heap__C)
                  86d89e60    00000004     BIOS_AVSDK_dsp_pe674.oe674 (.const:ti_sdo_ipc_nsremote_NameServerRemoteNotify_A_invalidValueLen__C)
                  86d89e64    00000004     BIOS_AVSDK_dsp_pe674.oe674 (.const:ti_sdo_ipc_nsremote_NameServerRemoteNotify_Instance_State_semMultiBlock__O)
                  86d89e68    00000004     BIOS_AVSDK_dsp_pe674.oe674 (.const:ti_sdo_ipc_nsremote_NameServerRemoteNotify_Instance_State_semRemoteWait__O)
                  86d89e6c    00000004     BIOS_AVSDK_dsp_pe674.oe674 (.const:ti_sdo_ipc_nsremote_NameServerRemoteNotify_Instance_State_swiObj__O)
                  86d89e70    00000004     BIOS_AVSDK_dsp_pe674.oe674 (.const:ti_sdo_ipc_nsremote_NameServerRemoteNotify_Module__diagsEnabled__C)
                  86d89e74    00000004     BIOS_AVSDK_dsp_pe674.oe674 (.const:ti_sdo_ipc_nsremote_NameServerRemoteNotify_Module__diagsIncluded__C)
                  86d89e78    00000004     BIOS_AVSDK_dsp_pe674.oe674 (.const:ti_sdo_ipc_nsremote_NameServerRemoteNotify_Module__diagsMask__C)
                  86d89e7c    00000004     BIOS_AVSDK_dsp_pe674.oe674 (.const:ti_sdo_ipc_nsremote_NameServerRemoteNotify_notifyEventId__C)
                  86d89e80    00000004     BIOS_AVSDK_dsp_pe674.oe674 (.const:ti_sdo_ipc_nsremote_NameServerRemoteNotify_timeout__C)
                  86d89e84    00000004     BIOS_AVSDK_dsp_pe674.oe674 (.const:ti_sdo_ipc_transports_TransportShmSetup_priority__C)
                  86d89e88    00000004     BIOS_AVSDK_dsp_pe674.oe674 (.const:ti_sdo_ipc_transports_TransportShm_Instance_State_swiObj__O)
                  86d89e8c    00000004     BIOS_AVSDK_dsp_pe674.oe674 (.const:ti_sdo_ipc_transports_TransportShm_Module__diagsEnabled__C)
                  86d89e90    00000004     BIOS_AVSDK_dsp_pe674.oe674 (.const:ti_sdo_ipc_transports_TransportShm_Module__diagsIncluded__C)
                  86d89e94    00000004     BIOS_AVSDK_dsp_pe674.oe674 (.const:ti_sdo_ipc_transports_TransportShm_Module__diagsMask__C)
                  86d89e98    00000004     BIOS_AVSDK_dsp_pe674.oe674 (.const:ti_sdo_utils_INameServerRemote_Interface__BASE__C)
                  86d89e9c    00000004     BIOS_AVSDK_dsp_pe674.oe674 (.const:ti_sdo_utils_MultiProc_A_invalidMultiProcId__C)
                  86d89ea0    00000004     BIOS_AVSDK_dsp_pe674.oe674 (.const:ti_sdo_utils_MultiProc_Module__diagsEnabled__C)
                  86d89ea4    00000004     BIOS_AVSDK_dsp_pe674.oe674 (.const:ti_sdo_utils_MultiProc_Module__diagsIncluded__C)
                  86d89ea8    00000004     BIOS_AVSDK_dsp_pe674.oe674 (.const:ti_sdo_utils_MultiProc_Module__diagsMask__C)
                  86d89eac    00000004     BIOS_AVSDK_dsp_pe674.oe674 (.const:ti_sdo_utils_MultiProc_nameList__C)
                  86d89eb0    00000004     BIOS_AVSDK_dsp_pe674.oe674 (.const:ti_sdo_utils_MultiProc_procIdList__C)
                  86d89eb4    00000004     BIOS_AVSDK_dsp_pe674.oe674 (.const:ti_sdo_utils_NameServer_A_invArgument__C)
                  86d89eb8    00000004     BIOS_AVSDK_dsp_pe674.oe674 (.const:ti_sdo_utils_NameServer_A_invalidLen__C)
                  86d89ebc    00000004     BIOS_AVSDK_dsp_pe674.oe674 (.const:ti_sdo_utils_NameServer_E_entryExists__C)
                  86d89ec0    00000004     BIOS_AVSDK_dsp_pe674.oe674 (.const:ti_sdo_utils_NameServer_E_maxReached__C)
                  86d89ec4    00000004     BIOS_AVSDK_dsp_pe674.oe674 (.const:ti_sdo_utils_NameServer_Instance_State_freeList__O)
                  86d89ec8    00000004     BIOS_AVSDK_dsp_pe674.oe674 (.const:ti_sdo_utils_NameServer_Instance_State_nameList__O)
                  86d89ecc    00000004     BIOS_AVSDK_dsp_pe674.oe674 (.const:ti_sdo_utils_NameServer_Module__diagsEnabled__C)
                  86d89ed0    00000004     BIOS_AVSDK_dsp_pe674.oe674 (.const:ti_sdo_utils_NameServer_Module__diagsIncluded__C)
                  86d89ed4    00000004     BIOS_AVSDK_dsp_pe674.oe674 (.const:ti_sdo_utils_NameServer_Module__diagsMask__C)
                  86d89ed8    00000004     BIOS_AVSDK_dsp_pe674.oe674 (.const:ti_sdo_utils_NameServer_Object__count__C)
                  86d89edc    00000004     BIOS_AVSDK_dsp_pe674.oe674 (.const:ti_sysbios_BIOS_Module__diagsEnabled__C)
                  86d89ee0    00000004     BIOS_AVSDK_dsp_pe674.oe674 (.const:ti_sysbios_BIOS_Module__diagsIncluded__C)
                  86d89ee4    00000004     BIOS_AVSDK_dsp_pe674.oe674 (.const:ti_sysbios_BIOS_Module__diagsMask__C)
                  86d89ee8    00000004     BIOS_AVSDK_dsp_pe674.oe674 (.const:ti_sysbios_BIOS_installedErrorHook__C)
                  86d89eec    00000004     BIOS_AVSDK_dsp_pe674.oe674 (.const:ti_sysbios_family_c62_TaskSupport_stackAlignment__C)
                  86d89ef0    00000004     BIOS_AVSDK_dsp_pe674.oe674 (.const:ti_sysbios_family_c64p_Cache_EMIFA_BASE__C)
                  86d89ef4    00000004     BIOS_AVSDK_dsp_pe674.oe674 (.const:ti_sysbios_family_c64p_Cache_EMIFA_CFG__C)
                  86d89ef8    00000004     BIOS_AVSDK_dsp_pe674.oe674 (.const:ti_sysbios_family_c64p_Cache_EMIFA_LENGTH__C)
                  86d89efc    00000004     BIOS_AVSDK_dsp_pe674.oe674 (.const:ti_sysbios_family_c64p_Cache_EMIFB_BASE__C)
                  86d89f00    00000004     BIOS_AVSDK_dsp_pe674.oe674 (.const:ti_sysbios_family_c64p_Cache_EMIFB_CFG__C)
                  86d89f04    00000004     BIOS_AVSDK_dsp_pe674.oe674 (.const:ti_sysbios_family_c64p_Cache_EMIFB_LENGTH__C)
                  86d89f08    00000004     BIOS_AVSDK_dsp_pe674.oe674 (.const:ti_sysbios_family_c64p_Cache_EMIFC_BASE__C)
                  86d89f0c    00000004     BIOS_AVSDK_dsp_pe674.oe674 (.const:ti_sysbios_family_c64p_Cache_EMIFC_CFG__C)
                  86d89f10    00000004     BIOS_AVSDK_dsp_pe674.oe674 (.const:ti_sysbios_family_c64p_Cache_EMIFC_LENGTH__C)
                  86d89f14    00000004     BIOS_AVSDK_dsp_pe674.oe674 (.const:ti_sysbios_family_c64p_Cache_MAR0_31__C)
                  86d89f18    00000004     BIOS_AVSDK_dsp_pe674.oe674 (.const:ti_sysbios_family_c64p_Cache_MAR128_159__C)
                  86d89f1c    00000004     BIOS_AVSDK_dsp_pe674.oe674 (.const:ti_sysbios_family_c64p_Cache_MAR160_191__C)
                  86d89f20    00000004     BIOS_AVSDK_dsp_pe674.oe674 (.const:ti_sysbios_family_c64p_Cache_MAR192_223__C)
                  86d89f24    00000004     BIOS_AVSDK_dsp_pe674.oe674 (.const:ti_sysbios_family_c64p_Cache_MAR224_255__C)
                  86d89f28    00000004     BIOS_AVSDK_dsp_pe674.oe674 (.const:ti_sysbios_family_c64p_Cache_MAR32_63__C)
                  86d89f2c    00000004     BIOS_AVSDK_dsp_pe674.oe674 (.const:ti_sysbios_family_c64p_Cache_MAR64_95__C)
                  86d89f30    00000004     BIOS_AVSDK_dsp_pe674.oe674 (.const:ti_sysbios_family_c64p_Cache_MAR96_127__C)
                  86d89f34    00000004     BIOS_AVSDK_dsp_pe674.oe674 (.const:ti_sysbios_family_c64p_EventCombiner_E_unpluggedEvent__C)
                  86d89f38    00000004     BIOS_AVSDK_dsp_pe674.oe674 (.const:ti_sysbios_family_c64p_Exception_E_exceptionMin__C)
                  86d89f3c    00000004     BIOS_AVSDK_dsp_pe674.oe674 (.const:ti_sysbios_family_c64p_Exception_exceptionHook__C)
                  86d89f40    00000004     BIOS_AVSDK_dsp_pe674.oe674 (.const:ti_sysbios_family_c64p_Exception_externalHook__C)
                  86d89f44    00000004     BIOS_AVSDK_dsp_pe674.oe674 (.const:ti_sysbios_family_c64p_Exception_internalHook__C)
                  86d89f48    00000004     BIOS_AVSDK_dsp_pe674.oe674 (.const:ti_sysbios_family_c64p_Exception_nmiHook__C)
                  86d89f4c    00000004     BIOS_AVSDK_dsp_pe674.oe674 (.const:ti_sysbios_family_c64p_Hwi_E_alreadyDefined__C)
                  86d89f50    00000004     BIOS_AVSDK_dsp_pe674.oe674 (.const:ti_sysbios_family_c64p_Hwi_E_handleNotFound__C)
                  86d89f54    00000004     BIOS_AVSDK_dsp_pe674.oe674 (.const:ti_sysbios_family_c64p_Hwi_LD_end__C)
                  86d89f58    00000004     BIOS_AVSDK_dsp_pe674.oe674 (.const:ti_sysbios_family_c64p_Hwi_LM_begin__C)
                  86d89f5c    00000004     BIOS_AVSDK_dsp_pe674.oe674 (.const:ti_sysbios_family_c64p_Hwi_Module__diagsEnabled__C)
                  86d89f60    00000004     BIOS_AVSDK_dsp_pe674.oe674 (.const:ti_sysbios_family_c64p_Hwi_Module__diagsIncluded__C)
                  86d89f64    00000004     BIOS_AVSDK_dsp_pe674.oe674 (.const:ti_sysbios_family_c64p_Hwi_Module__diagsMask__C)
                  86d89f68    00000004     BIOS_AVSDK_dsp_pe674.oe674 (.const:ti_sysbios_family_c64p_Hwi_Module__loggerFxn1__C)
                  86d89f6c    00000004     BIOS_AVSDK_dsp_pe674.oe674 (.const:ti_sysbios_family_c64p_Hwi_Module__loggerFxn8__C)
                  86d89f70    00000004     BIOS_AVSDK_dsp_pe674.oe674 (.const:ti_sysbios_family_c64p_Hwi_Module__loggerObj__C)
                  86d89f74    00000004     BIOS_AVSDK_dsp_pe674.oe674 (.const:ti_sysbios_family_c64p_Hwi_Object__heap__C)
                  86d89f78    00000004     BIOS_AVSDK_dsp_pe674.oe674 (.const:ti_sysbios_gates_GateMutexPri_A_badContext__C)
                  86d89f7c    00000004     BIOS_AVSDK_dsp_pe674.oe674 (.const:ti_sysbios_gates_GateMutexPri_Instance_State_pendQ__O)
                  86d89f80    00000004     BIOS_AVSDK_dsp_pe674.oe674 (.const:ti_sysbios_gates_GateMutexPri_Module__diagsEnabled__C)
                  86d89f84    00000004     BIOS_AVSDK_dsp_pe674.oe674 (.const:ti_sysbios_gates_GateMutexPri_Module__diagsIncluded__C)
                  86d89f88    00000004     BIOS_AVSDK_dsp_pe674.oe674 (.const:ti_sysbios_gates_GateMutexPri_Module__diagsMask__C)
                  86d89f8c    00000004     BIOS_AVSDK_dsp_pe674.oe674 (.const:ti_sysbios_gates_GateMutex_A_badContext__C)
                  86d89f90    00000004     BIOS_AVSDK_dsp_pe674.oe674 (.const:ti_sysbios_gates_GateMutex_Instance_State_sem__O)
                  86d89f94    00000004     BIOS_AVSDK_dsp_pe674.oe674 (.const:ti_sysbios_gates_GateMutex_Module__diagsEnabled__C)
                  86d89f98    00000004     BIOS_AVSDK_dsp_pe674.oe674 (.const:ti_sysbios_gates_GateMutex_Module__diagsIncluded__C)
                  86d89f9c    00000004     BIOS_AVSDK_dsp_pe674.oe674 (.const:ti_sysbios_gates_GateMutex_Module__diagsMask__C)
                  86d89fa0    00000004     BIOS_AVSDK_dsp_pe674.oe674 (.const:ti_sysbios_gates_GateSwi_A_badContext__C)
                  86d89fa4    00000004     BIOS_AVSDK_dsp_pe674.oe674 (.const:ti_sysbios_gates_GateSwi_Module__diagsEnabled__C)
                  86d89fa8    00000004     BIOS_AVSDK_dsp_pe674.oe674 (.const:ti_sysbios_gates_GateSwi_Module__diagsIncluded__C)
                  86d89fac    00000004     BIOS_AVSDK_dsp_pe674.oe674 (.const:ti_sysbios_gates_GateSwi_Module__diagsMask__C)
                  86d89fb0    00000004     BIOS_AVSDK_dsp_pe674.oe674 (.const:ti_sysbios_heaps_HeapMem_A_align__C)
                  86d89fb4    00000004     BIOS_AVSDK_dsp_pe674.oe674 (.const:ti_sysbios_heaps_HeapMem_A_heapSize__C)
                  86d89fb8    00000004     BIOS_AVSDK_dsp_pe674.oe674 (.const:ti_sysbios_heaps_HeapMem_A_invalidFree__C)
                  86d89fbc    00000004     BIOS_AVSDK_dsp_pe674.oe674 (.const:ti_sysbios_heaps_HeapMem_A_zeroBlock__C)
                  86d89fc0    00000004     BIOS_AVSDK_dsp_pe674.oe674 (.const:ti_sysbios_heaps_HeapMem_E_memory__C)
                  86d89fc4    00000004     BIOS_AVSDK_dsp_pe674.oe674 (.const:ti_sysbios_heaps_HeapMem_Module__diagsEnabled__C)
                  86d89fc8    00000004     BIOS_AVSDK_dsp_pe674.oe674 (.const:ti_sysbios_heaps_HeapMem_Module__diagsIncluded__C)
                  86d89fcc    00000004     BIOS_AVSDK_dsp_pe674.oe674 (.const:ti_sysbios_heaps_HeapMem_Module__diagsMask__C)
                  86d89fd0    00000004     BIOS_AVSDK_dsp_pe674.oe674 (.const:ti_sysbios_heaps_HeapMem_Module__gateObj__C)
                  86d89fd4    00000004     BIOS_AVSDK_dsp_pe674.oe674 (.const:ti_sysbios_heaps_HeapMem_Object__count__C)
                  86d89fd8    00000004     BIOS_AVSDK_dsp_pe674.oe674 (.const:ti_sysbios_heaps_HeapMem_reqAlign__C)
                  86d89fdc    00000004     BIOS_AVSDK_dsp_pe674.oe674 (.const:ti_sysbios_knl_Clock_A_badThreadType__C)
                  86d89fe0    00000004     BIOS_AVSDK_dsp_pe674.oe674 (.const:ti_sysbios_knl_Clock_LM_begin__C)
                  86d89fe4    00000004     BIOS_AVSDK_dsp_pe674.oe674 (.const:ti_sysbios_knl_Clock_LM_tick__C)
                  86d89fe8    00000004     BIOS_AVSDK_dsp_pe674.oe674 (.const:ti_sysbios_knl_Clock_LW_delayed__C)
                  86d89fec    00000004     BIOS_AVSDK_dsp_pe674.oe674 (.const:ti_sysbios_knl_Clock_Module_State_clockQ__O)
                  86d89ff0    00000004     BIOS_AVSDK_dsp_pe674.oe674 (.const:ti_sysbios_knl_Clock_Module__diagsEnabled__C)
                  86d89ff4    00000004     BIOS_AVSDK_dsp_pe674.oe674 (.const:ti_sysbios_knl_Clock_Module__diagsIncluded__C)
                  86d89ff8    00000004     BIOS_AVSDK_dsp_pe674.oe674 (.const:ti_sysbios_knl_Clock_Module__diagsMask__C)
                  86d89ffc    00000004     BIOS_AVSDK_dsp_pe674.oe674 (.const:ti_sysbios_knl_Clock_Module__loggerFxn1__C)
                  86d8a000    00000004     BIOS_AVSDK_dsp_pe674.oe674 (.const:ti_sysbios_knl_Clock_Module__loggerFxn2__C)
                  86d8a004    00000004     BIOS_AVSDK_dsp_pe674.oe674 (.const:ti_sysbios_knl_Clock_Module__loggerObj__C)
                  86d8a008    00000004     BIOS_AVSDK_dsp_pe674.oe674 (.const:ti_sysbios_knl_Clock_tickPeriod__C)
                  86d8a00c    00000004     BIOS_AVSDK_dsp_pe674.oe674 (.const:ti_sysbios_knl_Semaphore_A_badContext__C)
                  86d8a010    00000004     BIOS_AVSDK_dsp_pe674.oe674 (.const:ti_sysbios_knl_Idle_coreList__A)
                  86d8a014    00000004     BIOS_AVSDK_dsp_pe674.oe674 (.const:ti_sysbios_knl_Semaphore_A_noEvents__C)
                  86d8a018    00000004     BIOS_AVSDK_dsp_pe674.oe674 (.const:ti_sysbios_knl_Idle_funcList__A)
                  86d8a01c    00000004     BIOS_AVSDK_dsp_pe674.oe674 (.const:ti_sysbios_knl_Semaphore_A_overflow__C)
                  86d8a020    00000004     BIOS_AVSDK_dsp_pe674.oe674 (.const:ti_sysbios_knl_Semaphore_Instance_State_pendQ__O)
                  86d8a024    00000004     BIOS_AVSDK_dsp_pe674.oe674 (.const:ti_sysbios_knl_Semaphore_LM_pend__C)
                  86d8a028    00000004     BIOS_AVSDK_dsp_pe674.oe674 (.const:ti_sysbios_knl_Semaphore_LM_post__C)
                  86d8a02c    00000004     BIOS_AVSDK_dsp_pe674.oe674 (.const:ti_sysbios_knl_Semaphore_Module__diagsEnabled__C)
                  86d8a030    00000004     BIOS_AVSDK_dsp_pe674.oe674 (.const:ti_sysbios_knl_Semaphore_Module__diagsIncluded__C)
                  86d8a034    00000004     BIOS_AVSDK_dsp_pe674.oe674 (.const:ti_sysbios_knl_Semaphore_Module__diagsMask__C)
                  86d8a038    00000004     BIOS_AVSDK_dsp_pe674.oe674 (.const:ti_sysbios_knl_Semaphore_Module__loggerFxn2__C)
                  86d8a03c    00000004     BIOS_AVSDK_dsp_pe674.oe674 (.const:ti_sysbios_knl_Semaphore_Module__loggerFxn4__C)
                  86d8a040    00000004     BIOS_AVSDK_dsp_pe674.oe674 (.const:ti_sysbios_knl_Semaphore_Module__loggerObj__C)
                  86d8a044    00000004     BIOS_AVSDK_dsp_pe674.oe674 (.const:ti_sysbios_knl_Swi_A_badPriority__C)
                  86d8a048    00000004     BIOS_AVSDK_dsp_pe674.oe674 (.const:ti_sysbios_knl_Swi_LD_end__C)
                  86d8a04c    00000004     BIOS_AVSDK_dsp_pe674.oe674 (.const:ti_sysbios_knl_Swi_LM_begin__C)
                  86d8a050    00000004     BIOS_AVSDK_dsp_pe674.oe674 (.const:ti_sysbios_knl_Swi_LM_post__C)
                  86d8a054    00000004     BIOS_AVSDK_dsp_pe674.oe674 (.const:ti_sysbios_knl_Swi_Module__diagsEnabled__C)
                  86d8a058    00000004     BIOS_AVSDK_dsp_pe674.oe674 (.const:ti_sysbios_knl_Swi_Module__diagsIncluded__C)
                  86d8a05c    00000004     BIOS_AVSDK_dsp_pe674.oe674 (.const:ti_sysbios_knl_Swi_Module__diagsMask__C)
                  86d8a060    00000004     BIOS_AVSDK_dsp_pe674.oe674 (.const:ti_sysbios_knl_Swi_Module__loggerFxn1__C)
                  86d8a064    00000004     BIOS_AVSDK_dsp_pe674.oe674 (.const:ti_sysbios_knl_Swi_Module__loggerFxn4__C)
                  86d8a068    00000004     BIOS_AVSDK_dsp_pe674.oe674 (.const:ti_sysbios_knl_Swi_Module__loggerObj__C)
                  86d8a06c    00000004     BIOS_AVSDK_dsp_pe674.oe674 (.const:ti_sysbios_knl_Swi_Object__count__C)
                  86d8a070    00000004     BIOS_AVSDK_dsp_pe674.oe674 (.const:ti_sysbios_knl_Swi_Object__heap__C)
                  86d8a074    00000004     BIOS_AVSDK_dsp_pe674.oe674 (.const:ti_sysbios_knl_Swi_numConstructedSwis__C)
                  86d8a078    00000004     BIOS_AVSDK_dsp_pe674.oe674 (.const:ti_sysbios_knl_Task_A_badPriority__C)
                  86d8a07c    00000004     BIOS_AVSDK_dsp_pe674.oe674 (.const:ti_sysbios_knl_Task_A_badTaskState__C)
                  86d8a080    00000004     BIOS_AVSDK_dsp_pe674.oe674 (.const:ti_sysbios_knl_Task_A_badThreadType__C)
                  86d8a084    00000004     BIOS_AVSDK_dsp_pe674.oe674 (.const:ti_sysbios_knl_Task_A_badTimeout__C)
                  86d8a088    00000004     BIOS_AVSDK_dsp_pe674.oe674 (.const:ti_sysbios_knl_Task_A_noPendElem__C)
                  86d8a08c    00000004     BIOS_AVSDK_dsp_pe674.oe674 (.const:ti_sysbios_knl_Task_LD_block__C)
                  86d8a090    00000004     BIOS_AVSDK_dsp_pe674.oe674 (.const:ti_sysbios_knl_Task_LD_exit__C)
                  86d8a094    00000004     BIOS_AVSDK_dsp_pe674.oe674 (.const:ti_sysbios_knl_Task_LD_ready__C)
                  86d8a098    00000004     BIOS_AVSDK_dsp_pe674.oe674 (.const:ti_sysbios_knl_Task_LM_setPri__C)
                  86d8a09c    00000004     BIOS_AVSDK_dsp_pe674.oe674 (.const:ti_sysbios_knl_Task_LM_sleep__C)
                  86d8a0a0    00000004     BIOS_AVSDK_dsp_pe674.oe674 (.const:ti_sysbios_knl_Task_LM_switch__C)
                  86d8a0a4    00000004     BIOS_AVSDK_dsp_pe674.oe674 (.const:ti_sysbios_knl_Task_LM_yield__C)
                  86d8a0a8    00000004     BIOS_AVSDK_dsp_pe674.oe674 (.const:ti_sysbios_knl_Task_Module_State_inactiveQ__O)
                  86d8a0ac    00000004     BIOS_AVSDK_dsp_pe674.oe674 (.const:ti_sysbios_knl_Task_Module__diagsEnabled__C)
                  86d8a0b0    00000004     BIOS_AVSDK_dsp_pe674.oe674 (.const:ti_sysbios_knl_Task_Module__diagsIncluded__C)
                  86d8a0b4    00000004     BIOS_AVSDK_dsp_pe674.oe674 (.const:ti_sysbios_knl_Task_Module__diagsMask__C)
                  86d8a0b8    00000004     BIOS_AVSDK_dsp_pe674.oe674 (.const:ti_sysbios_knl_Task_Module__loggerFxn2__C)
                  86d8a0bc    00000004     BIOS_AVSDK_dsp_pe674.oe674 (.const:ti_sysbios_knl_Task_Module__loggerFxn4__C)
                  86d8a0c0    00000004     BIOS_AVSDK_dsp_pe674.oe674 (.const:ti_sysbios_knl_Task_Module__loggerObj__C)
                  86d8a0c4    00000004     BIOS_AVSDK_dsp_pe674.oe674 (.const:ti_sysbios_knl_Task_Object__count__C)
                  86d8a0c8    00000004     BIOS_AVSDK_dsp_pe674.oe674 (.const:ti_sysbios_knl_Task_Object__heap__C)
                  86d8a0cc    00000004     BIOS_AVSDK_dsp_pe674.oe674 (.const:ti_sysbios_knl_Task_allBlockedFunc__C)
                  86d8a0d0    00000004     BIOS_AVSDK_dsp_pe674.oe674 (.const:ti_sysbios_knl_Task_defaultStackHeap__C)
                  86d8a0d4    00000004     BIOS_AVSDK_dsp_pe674.oe674 (.const:ti_sysbios_knl_Task_defaultStackSize__C)
                  86d8a0d8    00000004     BIOS_AVSDK_dsp_pe674.oe674 (.const:ti_sysbios_knl_Task_numConstructedTasks__C)
                  86d8a0dc    00000004     BIOS_AVSDK_dsp_pe674.oe674 (.const:ti_sysbios_syncs_SyncSem_Module__diagsEnabled__C)
                  86d8a0e0    00000004     BIOS_AVSDK_dsp_pe674.oe674 (.const:ti_sysbios_syncs_SyncSem_Module__diagsIncluded__C)
                  86d8a0e4    00000004     BIOS_AVSDK_dsp_pe674.oe674 (.const:ti_sysbios_syncs_SyncSem_Module__diagsMask__C)
                  86d8a0e8    00000004     BIOS_AVSDK_dsp_pe674.oe674 (.const:ti_sysbios_timers_dmtimer_Timer_E_cannotSupport__C)
                  86d8a0ec    00000004     BIOS_AVSDK_dsp_pe674.oe674 (.const:ti_sysbios_timers_dmtimer_Timer_E_freqMismatch__C)
                  86d8a0f0    00000004     BIOS_AVSDK_dsp_pe674.oe674 (.const:ti_sysbios_timers_dmtimer_Timer_Module__diagsEnabled__C)
                  86d8a0f4    00000004     BIOS_AVSDK_dsp_pe674.oe674 (.const:ti_sysbios_timers_dmtimer_Timer_Module__diagsIncluded__C)
                  86d8a0f8    00000004     BIOS_AVSDK_dsp_pe674.oe674 (.const:ti_sysbios_timers_dmtimer_Timer_Module__diagsMask__C)
                  86d8a0fc    00000004     BIOS_AVSDK_dsp_pe674.oe674 (.const:ti_sysbios_timers_dmtimer_Timer_numTimerDevices__C)
                  86d8a100    00000004     BIOS_AVSDK_dsp_pe674.oe674 (.const:ti_sysbios_utils_Load_LS_cpuLoad__C)
                  86d8a104    00000004     BIOS_AVSDK_dsp_pe674.oe674 (.const:ti_sysbios_utils_Load_LS_hwiLoad__C)
                  86d8a108    00000004     BIOS_AVSDK_dsp_pe674.oe674 (.const:ti_sysbios_utils_Load_LS_swiLoad__C)
                  86d8a10c    00000004     BIOS_AVSDK_dsp_pe674.oe674 (.const:ti_sysbios_utils_Load_LS_taskLoad__C)
                  86d8a110    00000004     BIOS_AVSDK_dsp_pe674.oe674 (.const:ti_sysbios_utils_Load_Module_State_taskList__O)
                  86d8a114    00000004     BIOS_AVSDK_dsp_pe674.oe674 (.const:ti_sysbios_utils_Load_Module__diagsEnabled__C)
                  86d8a118    00000004     BIOS_AVSDK_dsp_pe674.oe674 (.const:ti_sysbios_utils_Load_Module__diagsIncluded__C)
                  86d8a11c    00000004     BIOS_AVSDK_dsp_pe674.oe674 (.const:ti_sysbios_utils_Load_Module__diagsMask__C)
                  86d8a120    00000004     BIOS_AVSDK_dsp_pe674.oe674 (.const:ti_sysbios_utils_Load_Module__loggerFxn1__C)
                  86d8a124    00000004     BIOS_AVSDK_dsp_pe674.oe674 (.const:ti_sysbios_utils_Load_Module__loggerFxn2__C)
                  86d8a128    00000004     BIOS_AVSDK_dsp_pe674.oe674 (.const:ti_sysbios_utils_Load_Module__loggerFxn4__C)
                  86d8a12c    00000004     BIOS_AVSDK_dsp_pe674.oe674 (.const:ti_sysbios_utils_Load_Module__loggerObj__C)
                  86d8a130    00000004     BIOS_AVSDK_dsp_pe674.oe674 (.const:ti_sysbios_utils_Load_postUpdate__C)
                  86d8a134    00000004     BIOS_AVSDK_dsp_pe674.oe674 (.const:ti_sysbios_utils_Load_windowInMs__C)
                  86d8a138    00000004     BIOS_AVSDK_dsp_pe674.oe674 (.const:ti_sysbios_xdcruntime_GateThreadSupport_Instance_State_gate__O)
                  86d8a13c    00000004     BIOS_AVSDK_dsp_pe674.oe674 (.const:xdc_runtime_Assert_E_assertFailed__C)
                  86d8a140    00000004     BIOS_AVSDK_dsp_pe674.oe674 (.const:xdc_runtime_Core_A_initializedParams__C)
                  86d8a144    00000004     BIOS_AVSDK_dsp_pe674.oe674 (.const:xdc_runtime_Core_Module__diagsEnabled__C)
                  86d8a148    00000004     BIOS_AVSDK_dsp_pe674.oe674 (.const:xdc_runtime_Core_Module__diagsIncluded__C)
                  86d8a14c    00000004     BIOS_AVSDK_dsp_pe674.oe674 (.const:xdc_runtime_Core_Module__diagsMask__C)
                  86d8a150    00000004     BIOS_AVSDK_dsp_pe674.oe674 (.const:xdc_runtime_Error_E_generic__C)
                  86d8a154    00000004     BIOS_AVSDK_dsp_pe674.oe674 (.const:xdc_runtime_Error_E_memory__C)
                  86d8a158    00000004     BIOS_AVSDK_dsp_pe674.oe674 (.const:xdc_runtime_Error_Module__diagsEnabled__C)
                  86d8a15c    00000004     BIOS_AVSDK_dsp_pe674.oe674 (.const:xdc_runtime_Error_Module__diagsIncluded__C)
                  86d8a160    00000004     BIOS_AVSDK_dsp_pe674.oe674 (.const:xdc_runtime_Error_Module__diagsMask__C)
                  86d8a164    00000004     BIOS_AVSDK_dsp_pe674.oe674 (.const:xdc_runtime_Error_Module__loggerFxn8__C)
                  86d8a168    00000004     BIOS_AVSDK_dsp_pe674.oe674 (.const:xdc_runtime_Error_Module__loggerObj__C)
                  86d8a16c    00000004     BIOS_AVSDK_dsp_pe674.oe674 (.const:xdc_runtime_Error_policy__C)
                  86d8a170    00000004     BIOS_AVSDK_dsp_pe674.oe674 (.const:xdc_runtime_Error_raiseHook__C)
                  86d8a174    00000004     BIOS_AVSDK_dsp_pe674.oe674 (.const:xdc_runtime_IGateProvider_Interface__BASE__C)
                  86d8a178    00000004     BIOS_AVSDK_dsp_pe674.oe674 (.const:xdc_runtime_IHeap_Interface__BASE__C)
                  86d8a17c    00000004     BIOS_AVSDK_dsp_pe674.oe674 (.const:xdc_runtime_IModule_Interface__BASE__C)
                  86d8a180    00000004     BIOS_AVSDK_dsp_pe674.oe674 (.const:xdc_runtime_Log_L_error__C)
                  86d8a184    00000004     BIOS_AVSDK_dsp_pe674.oe674 (.const:xdc_runtime_Memory_defaultHeapInstance__C)
                  86d8a188    00000004     BIOS_AVSDK_dsp_pe674.oe674 (.const:xdc_runtime_Startup_execImpl__C)
                  86d8a18c    00000004     BIOS_AVSDK_dsp_pe674.oe674 (.const:xdc_runtime_Startup_maxPasses__C)
                  86d8a190    00000004     BIOS_AVSDK_dsp_pe674.oe674 (.const:xdc_runtime_Startup_firstFxns__A)
                  86d8a194    00000004     BIOS_AVSDK_dsp_pe674.oe674 (.const:xdc_runtime_Startup_sfxnRts__C)
                  86d8a198    00000004     BIOS_AVSDK_dsp_pe674.oe674 (.const:xdc_runtime_Startup_lastFxns__A)
                  86d8a19c    00000004     BIOS_AVSDK_dsp_pe674.oe674 (.const:xdc_runtime_Startup_sfxnTab__C)
                  86d8a1a0    00000004     BIOS_AVSDK_dsp_pe674.oe674 (.const:xdc_runtime_SysMin_bufSize__C)
                  86d8a1a4    00000004     BIOS_AVSDK_dsp_pe674.oe674 (.const:xdc_runtime_SysMin_outputFunc__C)
                  86d8a1a8    00000004     BIOS_AVSDK_dsp_pe674.oe674 (.const:xdc_runtime_System_Module__gateObj__C)
                  86d8a1ac    00000004     BIOS_AVSDK_dsp_pe674.oe674 (.const:xdc_runtime_System_extendFxn__C)
                  86d8a1b0    00000004     BIOS_AVSDK_dsp_pe674.oe674 (.const:xdc_runtime_System_maxAtexitHandlers__C)
                  86d8a1b4    00000004     BIOS_AVSDK_dsp_pe674.oe674 (.const:xdc_runtime_Text_charTab__C)
                  86d8a1b8    00000004     BIOS_AVSDK_dsp_pe674.oe674 (.const:xdc_runtime_Text_nameEmpty__C)
                  86d8a1bc    00000004     BIOS_AVSDK_dsp_pe674.oe674 (.const:xdc_runtime_Text_nameStatic__C)
                  86d8a1c0    00000004     BIOS_AVSDK_dsp_pe674.oe674 (.const:xdc_runtime_Text_nameUnknown__C)
                  86d8a1c4    00000004     BIOS_AVSDK_dsp_pe674.oe674 (.const:xdc_runtime_Text_nodeTab__C)
                  86d8a1c8    00000004     BIOS_AVSDK_dsp_pe674.oe674 (.const:xdc_runtime_Text_visitRopeFxn__C)
                  86d8a1cc    00000004     BIOS_AVSDK_dsp_pe674.oe674 (.const:xdc_runtime_knl_ISync_Interface__BASE__C)
                  86d8a1d0    00000002     BIOS_AVSDK_dsp_pe674.oe674 (.const:ti_sdo_ipc_GateMP_Module__id__C)
                  86d8a1d2    00000002     --HOLE-- [fill = 0]
                  86d8a1d4    00000002     BIOS_AVSDK_dsp_pe674.oe674 (.const:ti_sdo_ipc_GateMP_Module__loggerDefined__C)
                  86d8a1d6    00000002     --HOLE-- [fill = 0]
                  86d8a1d8    00000002     BIOS_AVSDK_dsp_pe674.oe674 (.const:ti_sdo_ipc_Ipc_Module__id__C)
                  86d8a1da    00000002     --HOLE-- [fill = 0]
                  86d8a1dc    00000002     BIOS_AVSDK_dsp_pe674.oe674 (.const:ti_sdo_ipc_Ipc_generateSlaveDataForHost__C)
                  86d8a1de    00000002     --HOLE-- [fill = 0]
                  86d8a1e0    00000002     BIOS_AVSDK_dsp_pe674.oe674 (.const:ti_sdo_ipc_ListMP_Module__id__C)
                  86d8a1e2    00000002     --HOLE-- [fill = 0]
                  86d8a1e4    00000002     BIOS_AVSDK_dsp_pe674.oe674 (.const:ti_sdo_ipc_MessageQ_Module__id__C)
                  86d8a1e6    00000002     --HOLE-- [fill = 0]
                  86d8a1e8    00000002     BIOS_AVSDK_dsp_pe674.oe674 (.const:ti_sdo_ipc_MessageQ_Module__loggerDefined__C)
                  86d8a1ea    00000002     --HOLE-- [fill = 0]
                  86d8a1ec    00000002     BIOS_AVSDK_dsp_pe674.oe674 (.const:ti_sdo_ipc_Notify_Module__id__C)
                  86d8a1ee    00000002     --HOLE-- [fill = 0]
                  86d8a1f0    00000002     BIOS_AVSDK_dsp_pe674.oe674 (.const:ti_sdo_ipc_Notify_numLines__C)
                  86d8a1f2    00000002     --HOLE-- [fill = 0]
                  86d8a1f4    00000002     BIOS_AVSDK_dsp_pe674.oe674 (.const:ti_sdo_ipc_Notify_reservedEvents__C)
                  86d8a1f6    00000002     --HOLE-- [fill = 0]
                  86d8a1f8    00000002     BIOS_AVSDK_dsp_pe674.oe674 (.const:ti_sdo_ipc_SharedRegion_Module__id__C)
                  86d8a1fa    00000002     --HOLE-- [fill = 0]
                  86d8a1fc    00000002     BIOS_AVSDK_dsp_pe674.oe674 (.const:ti_sdo_ipc_SharedRegion_numEntries__C)
                  86d8a1fe    00000002     --HOLE-- [fill = 0]
                  86d8a200    00000002     BIOS_AVSDK_dsp_pe674.oe674 (.const:ti_sdo_ipc_SharedRegion_translate__C)
                  86d8a202    00000002     --HOLE-- [fill = 0]
                  86d8a204    00000002     BIOS_AVSDK_dsp_pe674.oe674 (.const:ti_sdo_ipc_family_c6a8149_InterruptDsp_Module__id__C)
                  86d8a206    00000002     --HOLE-- [fill = 0]
                  86d8a208    00000002     BIOS_AVSDK_dsp_pe674.oe674 (.const:ti_sdo_ipc_gates_GateHWSpinlock_Module__id__C)
                  86d8a20a    00000002     --HOLE-- [fill = 0]
                  86d8a20c    00000002     BIOS_AVSDK_dsp_pe674.oe674 (.const:ti_sdo_ipc_gates_GateHWSpinlock_Module__loggerDefined__C)
                  86d8a20e    00000002     --HOLE-- [fill = 0]
                  86d8a210    00000002     BIOS_AVSDK_dsp_pe674.oe674 (.const:ti_sdo_ipc_gates_GateMPSupportNull_Module__id__C)
                  86d8a212    00000002     --HOLE-- [fill = 0]
                  86d8a214    00000002     BIOS_AVSDK_dsp_pe674.oe674 (.const:ti_sdo_ipc_gates_GatePeterson_Module__id__C)
                  86d8a216    00000002     --HOLE-- [fill = 0]
                  86d8a218    00000002     BIOS_AVSDK_dsp_pe674.oe674 (.const:ti_sdo_ipc_heaps_HeapBufMP_Module__id__C)
                  86d8a21a    00000002     --HOLE-- [fill = 0]
                  86d8a21c    00000002     BIOS_AVSDK_dsp_pe674.oe674 (.const:ti_sdo_ipc_heaps_HeapBufMP_trackAllocs__C)
                  86d8a21e    00000002     --HOLE-- [fill = 0]
                  86d8a220    00000002     BIOS_AVSDK_dsp_pe674.oe674 (.const:ti_sdo_ipc_heaps_HeapMemMP_Module__id__C)
                  86d8a222    00000002     --HOLE-- [fill = 0]
                  86d8a224    00000002     BIOS_AVSDK_dsp_pe674.oe674 (.const:ti_sdo_ipc_notifyDrivers_NotifyDriverShm_Module__id__C)
                  86d8a226    00000002     --HOLE-- [fill = 0]
                  86d8a228    00000002     BIOS_AVSDK_dsp_pe674.oe674 (.const:ti_sdo_ipc_nsremote_NameServerRemoteNotify_Module__id__C)
                  86d8a22a    00000002     --HOLE-- [fill = 0]
                  86d8a22c    00000002     BIOS_AVSDK_dsp_pe674.oe674 (.const:ti_sdo_ipc_transports_TransportShm_Module__id__C)
                  86d8a22e    00000002     --HOLE-- [fill = 0]
                  86d8a230    00000002     BIOS_AVSDK_dsp_pe674.oe674 (.const:ti_sdo_ipc_transports_TransportShm_notifyEventId__C)
                  86d8a232    00000002     --HOLE-- [fill = 0]
                  86d8a234    00000002     BIOS_AVSDK_dsp_pe674.oe674 (.const:ti_sdo_utils_MultiProc_Module__id__C)
                  86d8a236    00000002     --HOLE-- [fill = 0]
                  86d8a238    00000002     BIOS_AVSDK_dsp_pe674.oe674 (.const:ti_sdo_utils_MultiProc_numProcessors__C)
                  86d8a23a    00000002     --HOLE-- [fill = 0]
                  86d8a23c    00000002     BIOS_AVSDK_dsp_pe674.oe674 (.const:ti_sdo_utils_MultiProc_numProcsInCluster__C)
                  86d8a23e    00000002     --HOLE-- [fill = 0]
                  86d8a240    00000002     BIOS_AVSDK_dsp_pe674.oe674 (.const:ti_sdo_utils_NameServer_Module__id__C)
                  86d8a242    00000002     --HOLE-- [fill = 0]
                  86d8a244    00000002     BIOS_AVSDK_dsp_pe674.oe674 (.const:ti_sdo_utils_NameServer_singleProcessor__C)
                  86d8a246    00000002     --HOLE-- [fill = 0]
                  86d8a248    00000002     BIOS_AVSDK_dsp_pe674.oe674 (.const:ti_sysbios_BIOS_Module__id__C)
                  86d8a24a    00000002     --HOLE-- [fill = 0]
                  86d8a24c    00000002     BIOS_AVSDK_dsp_pe674.oe674 (.const:ti_sysbios_family_c64p_EventCombiner_Module__id__C)
                  86d8a24e    00000002     --HOLE-- [fill = 0]
                  86d8a250    00000002     BIOS_AVSDK_dsp_pe674.oe674 (.const:ti_sysbios_family_c64p_Exception_Module__id__C)
                  86d8a252    00000002     --HOLE-- [fill = 0]
                  86d8a254    00000002     BIOS_AVSDK_dsp_pe674.oe674 (.const:ti_sysbios_family_c64p_Hwi_Module__id__C)
                  86d8a256    00000002     --HOLE-- [fill = 0]
                  86d8a258    00000002     BIOS_AVSDK_dsp_pe674.oe674 (.const:ti_sysbios_family_c64p_Hwi_Module__loggerDefined__C)
                  86d8a25a    00000002     --HOLE-- [fill = 0]
                  86d8a25c    00000002     BIOS_AVSDK_dsp_pe674.oe674 (.const:ti_sysbios_gates_GateMutexPri_Module__id__C)
                  86d8a25e    00000002     --HOLE-- [fill = 0]
                  86d8a260    00000002     BIOS_AVSDK_dsp_pe674.oe674 (.const:ti_sysbios_gates_GateMutex_Module__id__C)
                  86d8a262    00000002     --HOLE-- [fill = 0]
                  86d8a264    00000002     BIOS_AVSDK_dsp_pe674.oe674 (.const:ti_sysbios_gates_GateSwi_Module__id__C)
                  86d8a266    00000002     --HOLE-- [fill = 0]
                  86d8a268    00000002     BIOS_AVSDK_dsp_pe674.oe674 (.const:ti_sysbios_heaps_HeapMem_Module__id__C)
                  86d8a26a    00000002     --HOLE-- [fill = 0]
                  86d8a26c    00000002     BIOS_AVSDK_dsp_pe674.oe674 (.const:ti_sysbios_knl_Clock_Module__id__C)
                  86d8a26e    00000002     --HOLE-- [fill = 0]
                  86d8a270    00000002     BIOS_AVSDK_dsp_pe674.oe674 (.const:ti_sysbios_knl_Clock_Module__loggerDefined__C)
                  86d8a272    00000002     --HOLE-- [fill = 0]
                  86d8a274    00000002     BIOS_AVSDK_dsp_pe674.oe674 (.const:ti_sysbios_knl_Semaphore_Module__id__C)
                  86d8a276    00000002     --HOLE-- [fill = 0]
                  86d8a278    00000002     BIOS_AVSDK_dsp_pe674.oe674 (.const:ti_sysbios_knl_Semaphore_Module__loggerDefined__C)
                  86d8a27a    00000002     --HOLE-- [fill = 0]
                  86d8a27c    00000002     BIOS_AVSDK_dsp_pe674.oe674 (.const:ti_sysbios_knl_Swi_Module__id__C)
                  86d8a27e    00000002     --HOLE-- [fill = 0]
                  86d8a280    00000002     BIOS_AVSDK_dsp_pe674.oe674 (.const:ti_sysbios_knl_Swi_Module__loggerDefined__C)
                  86d8a282    00000002     --HOLE-- [fill = 0]
                  86d8a284    00000002     BIOS_AVSDK_dsp_pe674.oe674 (.const:ti_sysbios_knl_Task_Module__id__C)
                  86d8a286    00000002     --HOLE-- [fill = 0]
                  86d8a288    00000002     BIOS_AVSDK_dsp_pe674.oe674 (.const:ti_sysbios_knl_Task_Module__loggerDefined__C)
                  86d8a28a    00000002     --HOLE-- [fill = 0]
                  86d8a28c    00000002     BIOS_AVSDK_dsp_pe674.oe674 (.const:ti_sysbios_knl_Task_initStackFlag__C)
                  86d8a28e    00000002     --HOLE-- [fill = 0]
                  86d8a290    00000002     BIOS_AVSDK_dsp_pe674.oe674 (.const:ti_sysbios_syncs_SyncSem_Module__id__C)
                  86d8a292    00000002     --HOLE-- [fill = 0]
                  86d8a294    00000002     BIOS_AVSDK_dsp_pe674.oe674 (.const:ti_sysbios_timers_dmtimer_Timer_Module__id__C)
                  86d8a296    00000002     --HOLE-- [fill = 0]
                  86d8a298    00000002     BIOS_AVSDK_dsp_pe674.oe674 (.const:ti_sysbios_timers_dmtimer_Timer_checkFrequency__C)
                  86d8a29a    00000002     --HOLE-- [fill = 0]
                  86d8a29c    00000002     BIOS_AVSDK_dsp_pe674.oe674 (.const:ti_sysbios_timers_dmtimer_Timer_startupNeeded__C)
                  86d8a29e    00000002     --HOLE-- [fill = 0]
                  86d8a2a0    00000002     BIOS_AVSDK_dsp_pe674.oe674 (.const:ti_sysbios_utils_Load_Module__id__C)
                  86d8a2a2    00000002     --HOLE-- [fill = 0]
                  86d8a2a4    00000002     BIOS_AVSDK_dsp_pe674.oe674 (.const:ti_sysbios_utils_Load_Module__loggerDefined__C)
                  86d8a2a6    00000002     --HOLE-- [fill = 0]
                  86d8a2a8    00000002     BIOS_AVSDK_dsp_pe674.oe674 (.const:ti_sysbios_utils_Load_autoAddTasks__C)
                  86d8a2aa    00000002     --HOLE-- [fill = 0]
                  86d8a2ac    00000002     BIOS_AVSDK_dsp_pe674.oe674 (.const:ti_sysbios_utils_Load_hwiEnabled__C)
                  86d8a2ae    00000002     --HOLE-- [fill = 0]
                  86d8a2b0    00000002     BIOS_AVSDK_dsp_pe674.oe674 (.const:ti_sysbios_utils_Load_swiEnabled__C)
                  86d8a2b2    00000002     --HOLE-- [fill = 0]
                  86d8a2b4    00000002     BIOS_AVSDK_dsp_pe674.oe674 (.const:ti_sysbios_utils_Load_taskEnabled__C)
                  86d8a2b6    00000002     --HOLE-- [fill = 0]
                  86d8a2b8    00000002     BIOS_AVSDK_dsp_pe674.oe674 (.const:ti_sysbios_utils_Load_updateInIdle__C)
                  86d8a2ba    00000002     --HOLE-- [fill = 0]
                  86d8a2bc    00000002     BIOS_AVSDK_dsp_pe674.oe674 (.const:xdc_runtime_Core_Module__id__C)
                  86d8a2be    00000002     --HOLE-- [fill = 0]
                  86d8a2c0    00000002     BIOS_AVSDK_dsp_pe674.oe674 (.const:xdc_runtime_Error_Module__loggerDefined__C)
                  86d8a2c2    00000002     --HOLE-- [fill = 0]
                  86d8a2c4    00000002     BIOS_AVSDK_dsp_pe674.oe674 (.const:xdc_runtime_Error_maxDepth__C)
                  86d8a2c6    00000002     --HOLE-- [fill = 0]
                  86d8a2c8    00000002     BIOS_AVSDK_dsp_pe674.oe674 (.const:xdc_runtime_Memory_Module__id__C)
                  86d8a2ca    00000002     --HOLE-- [fill = 0]
                  86d8a2cc    00000002     BIOS_AVSDK_dsp_pe674.oe674 (.const:xdc_runtime_SysMin_flushAtExit__C)
                  86d8a2ce    00000002     --HOLE-- [fill = 0]
                  86d8a2d0    00000002     BIOS_AVSDK_dsp_pe674.oe674 (.const:xdc_runtime_Text_charCnt__C)
                  86d8a2d2    00000002     --HOLE-- [fill = 0]
                  86d8a2d4    00000002     BIOS_AVSDK_dsp_pe674.oe674 (.const:xdc_runtime_Text_isLoaded__C)
                  86d8a2d6    00000002     --HOLE-- [fill = 0]
                  86d8a2d8    00000002     BIOS_AVSDK_dsp_pe674.oe674 (.const:xdc_runtime_Text_registryModsLastId__C)
                  86d8a2da    00000002     --HOLE-- [fill = 0]
                  86d8a2dc    00000002     BIOS_AVSDK_dsp_pe674.oe674 (.const:xdc_runtime_Text_unnamedModsLastId__C)

.cio       0    86d8a2e0    00000120     UNINITIALIZED
                  86d8a2e0    00000120     rts6740_elf.lib : trgmsg.obj (.cio)

.vecs      0    86d8a400    00000200     
                  86d8a400    00000200     BIOS_AVSDK_dsp_pe674.oe674 (.vecs)

.switch    0    86d8a600    000000e4     
                  86d8a600    00000038     dsp_app_task.obj (.switch:Init_Page)
                  86d8a638    00000028     dsp_app_task.obj (.switch:Show_View)
                  86d8a660    0000001c     ti_srv_lib.lib : ti_srv_lib.obj (.switch:ti_srv_control_static)
                  86d8a67c    00000014     edma3_lld_drv_sample.ae674 : sample_cs.oe674 (.switch:edma3OsProtectEntry)
                  86d8a690    00000014                                : sample_cs.oe674 (.switch:edma3OsProtectExit)
                  86d8a6a4    00000010     edma3_lld_rm.ae674 : edma3resmgr.oe674 (.switch:EDMA3_RM_allocResource)
                  86d8a6b4    00000010                        : edma3resmgr.oe674 (.switch:EDMA3_RM_freeResource)
                  86d8a6c4    00000010     edma3_lld_drv_sample.ae674 : sample_ti814x_int_reg.oe674 (.switch:sampleConfigScr)
                  86d8a6d4    00000010     ipc.ae674 : Ipc.obj (.switch:ti_sdo_ipc_GateMP_Instance_finalize__F)

.bss       0    86d8b000    0000f0f8     
                  86d8b000    0000f060     remote_debug_server.obj (.bss:extMemNonCache:remoteDebugCoreShm) [fill = 0]
                  86d9a060    00000064     ti_srv_lib.lib : ti_srv_lib.obj (.bss) [fill = 0]
                  86d9a0c4    00000004     --HOLE-- [fill = 0]
                  86d9a0c8    00000018                    : SV_GAlign_Run.obj (.bss) [fill = 0]
                  86d9a0e0    00000010     dsp_app_task.obj (.bss) [fill = 0]
                  86d9a0f0    00000008     edma3_lld_drv_sample.ae674 : sample_init.oe674 (.bss) [fill = 0]

.neardata 
*          0    86d9a0f8    0000021e     
                  86d9a0f8    00000190     dsp_app_task.obj (.neardata)
                  86d9a288    00000044     ti_srv_lib.lib : ti_srv_lib.obj (.neardata)
                  86d9a2cc    00000010     edma3_lld_rm.ae674 : edma3_rm_gbl_data.oe674 (.neardata)
                  86d9a2dc    00000010     edma_helper_funcs.obj (.neardata)
                  86d9a2ec    0000000a     edma3_lld_rm.ae674 : edma3resmgr.oe674 (.neardata)
                  86d9a2f6    00000002     --HOLE-- [fill = 0]
                  86d9a2f8    00000008     BIOS_AVSDK_dsp_pe674.oe674 (.neardata)
                  86d9a300    00000008     edma3_lld_drv_sample.ae674 : sample_ti814x_int_reg.oe674 (.neardata)
                  86d9a308    00000004     remote_debug_server.obj (.neardata)
                  86d9a30c    00000004     ti_srv_lib.lib : SV_GAlign_Run.obj (.neardata)
                  86d9a310    00000004                    : SV_Synthesis_Run.obj (.neardata)
                  86d9a314    00000002     edma3_lld_drv.ae674 : edma3_drv_init.oe674 (.neardata)

.rodata    0    86d9a318    0000000c     
                  86d9a318    00000008     edma3_lld_drv_sample.ae674 : sample_ti814x_cfg.oe674 (.rodata)
                  86d9a320    00000004     edma3_lld_rm.ae674 : edma3_rm_gbl_data.oe674 (.rodata)

.stack     0    86d9a328    00004000     UNINITIALIZED
                  86d9a328    00000008     boot.ae674 : boot.oe674 (.stack)
                  86d9a330    00003ff8     --HOLE--

.myNonCacheHeap 
*          0    87000000    00100000     UNINITIALIZED
                  87000000    00100000     BIOS_AVSDK_dsp_pe674.oe674 (.myNonCacheHeap)


FAR CALL TRAMPOLINES

callee name               trampoline name
   callee addr  tramp addr   call addr  call info
--------------  -----------  ---------  ----------------
$.text:xdc_runtime_Startup_reset__I:BIOS_AVSDK_dsp_pe674.oe674$0x0  $Tramp$S$$xdc_runtime_Startup_reset__I
   86d24140     85c000a0     85c00040   boot.ae674 : boot.oe674 (.text:_c_int00)

[1 trampolines]
[1 trampoline calls]


GLOBAL SYMBOLS: SORTED ALPHABETICALLY BY Name 

address    name
--------   ----
86cd6980   A8CommCreate
86cd5dc0   A8CommTask
86cea608   Alg_GeometricAlignmentControl
86cea474   Alg_GeometricAlignmentCreate
86cea38c   Alg_GeometricAlignmentDelete
86cea220   Alg_GeometricAlignmentMemQuery
86ce4e2c   Alg_PhotometricAlignmentControl
86ce4b70   Alg_PhotometricAlignmentCreate
86ce4a90   Alg_PhotometricAlignmentDelete
86ce4940   Alg_PhotometricAlignmentMemQuery
86ce6214   Alg_SynthesisControl
86ce60b0   Alg_SynthesisCreate
86ce6014   Alg_SynthesisDelete
86ce5ea0   Alg_SynthesisMemQuery
86cde6d0   AllocatePersisGlobalMemory
86cd7000   BitBlt
86cd7f10   BitBlt_Raw
86d22060   C$$EXIT
86d20b98   C$$IO$$
86d9a1fc   ChInfoFromA8
86d9a1f4   DoneProcessedOneSet
86d17980   EDMA3_DRV_clearErrorBits
86d15760   EDMA3_DRV_close
86d099a0   EDMA3_DRV_create
86d1a920   EDMA3_DRV_delete
86d09c20   EDMA3_DRV_disableTransfer
86d0b520   EDMA3_DRV_enableTransfer
86d05120   EDMA3_DRV_freeChannel
86d1cc60   EDMA3_DRV_initXbarEventMap
86d07700   EDMA3_DRV_open
86cea620   EDMA3_DRV_requestChannel
86d16940   EDMA3_DRV_setPaRAM
86d9a320   EDMA3_MAX_RM_INSTANCES
86ceb260   EDMA3_RM_allocResource
86d11940   EDMA3_RM_close
86d036e0   EDMA3_RM_create
86d1b8e0   EDMA3_RM_delete
86d00540   EDMA3_RM_freeResource
86d1f340   EDMA3_RM_initXbarEventMap
86cf6da0   EDMA3_RM_open
86d13f60   EDMA3_RM_registerTccCb
86d158c0   EDMA3_RM_unregisterTccCb
86cd6d78   FillBackground
86d9a080   GPtr1
86d9a088   GPtr2
86d1f3a0   GateMP_Params_init
86d16a80   GateMP_close
86d0f040   GateMP_enter
86d0f240   GateMP_leave
86d05420   GateMP_openByAddr
86d04460   GateMP_sharedMemReq
86d1cd00   HOSTclose
86d19120   HOSTlseek
86d1aa00   HOSTopen
86d1b9a0   HOSTread
86d140e0   HOSTrename
86d1ba60   HOSTunlink
86d1bb20   HOSTwrite
86d71db8   HSAELUTin
86d1dfc0   HeapBufMP_Params_init
86d21de0   HeapBufMP_close
86d1aae0   HeapBufMP_create
86d21e00   HeapBufMP_delete
86d04ae0   HeapBufMP_open
86d123c0   HeapBufMP_openByAddr
86cfd000   HeapBufMP_sharedMemReq
86d1f400   HeapMemMP_Params_init
86d1bbe0   HeapMemMP_create
86d12560   HeapMemMP_openByAddr
86d02c60   HeapMemMP_sharedMemReq
86d9a1fe   InfoSwmsLayout
86cdb598   InitParams
86cdb3a8   InitTP
86cd6a68   Init_Page
86d9a078   Input_GridSize
86ced360   Ipc_attach
85c00408   Ipc_sr0MemorySetup
86d08200   Ipc_start
86d079c0   Ipc_writeConfig
86d1bca0   ListMP_create
86cf8520   ListMP_getHead
86d0f440   ListMP_openByAddr
86cfeb40   ListMP_putTail
86d0b780   ListMP_sharedMemReq
86d05d20   MessageQ_alloc
86d1cda0   MessageQ_create
86d21e20   MessageQ_delete
86d0df40   MessageQ_get
86d07c80   MessageQ_open
86cf0a80   MessageQ_put
86d16bc0   MessageQ_registerHeap
86d17aa0   MessageQ_unregisterHeap
86d14260   MultiProc_getName
86d21e40   MultiProc_self
86cf47e0   NameServer_add
86cfaca0   NameServer_get
86d084a0   NameServer_getLocal
86d15a20   Notify_attach
86d143e0   Notify_intLineRegistered
86cf7380   Notify_registerEventSingle
86cf5b80   Notify_sendEvent
86cf7960   Notify_unregisterEventSingle
86d9a074   Output_GridSize
86d9a090   PPtr3
86d9a098   PPtr4
86cdb1b8   ProcessArgs
86cfa190   RemoteDebug_deInit
86cfa0c0   RemoteDebug_getChar
86cf9f44   RemoteDebug_getString
86cf9f30   RemoteDebug_init
86cf9ec4   RemoteDebug_putChar
86ce50c4   SV_DefineBlendingWeights
86cd4598   SV_GAlign_Run
86cea160   SV_GAlign_algConfig
86ce9d2c   SV_GAlign_init
86d16680   SV_Global_algConfig
86ce1608   SV_PAlign_Run
86ce48bc   SV_PAlign_algConfig
86ce46a0   SV_PAlign_init
86ce1a80   SV_Synthesis_Run
86ce5e2c   SV_Synthesis_algConfig
86ce5a28   SV_Synthesis_init
86d02fe0   SharedRegion_clearEntry
86d12700   SharedRegion_entryInit
86d128a0   SharedRegion_getCacheLineSize
86d06000   SharedRegion_getEntry
86d12a40   SharedRegion_getHeap
86d1bd60   SharedRegion_getId
86d03a40   SharedRegion_getPtr
86d062e0   SharedRegion_getSRPtr
86d12be0   SharedRegion_isCacheEnabled
86cf7f40   SharedRegion_setEntry
86cd89b8   Show_Button
86cdb000   Show_ColabrationState
86cdafa0   Show_CollsionWarning
86cd7f84   Show_Distance
86cd8628   Show_Item
86cd89c0   Show_Page
86cd8544   Show_Title
86cd7434   Show_View
86cd82e0   Show_WarnView
86d9a2a0   SynthesisBuffer
86d9a2f8   Syslink_terminateEventId
86d9a2fc   Syslink_terminateEventLineId
86cda16c   TI_dsp_Processing
86d77730   TSK_idle
86d71548   TTELUTin
86d9a1f0   ToProcessOneSet
86cd6dcc   UI_Init
86cd8e98   UI_Key_Process
86cd9da0   UI_Process
86cd9d80   UI_ShowDefaultPage
86d71980   VendorLUTin
86cf9d60   Vps_printf
86cf9d04   Vps_rprintf
85c00400   _Ipc_ResetVector
86d21ae0   _TSC_enable
86d21ae8   _TSC_read
86c00000   __ASM__
86d8a2e0   __CIOBUF_
86c000c8   __ISA__
86c000e0   __PLAT__
86c00100   __TARG__
UNDEFED    __TI_CINIT_Base
UNDEFED    __TI_CINIT_Limit
UNDEFED    __TI_Handler_Table_Base
UNDEFED    __TI_Handler_Table_Limit
UNDEFED    __TI_INITARRAY_Base
UNDEFED    __TI_INITARRAY_Limit
86d9e328   __TI_STACK_END
00004000   __TI_STACK_SIZE
86d8b000   __TI_STATIC_BASE
00000001   __TI_args_main
86d77fd8   __TI_enable_exit_profile_output
ffffffff   __TI_pprof_out_hndl
ffffffff   __TI_prof_data_size
ffffffff   __TI_prof_data_start
86c00128   __TRDR__
ffffffff   __binit__
86d1f460   __c6xabi_abort_msg
86cf9660   __c6xabi_divd
86d09ea0   __c6xabi_divf
86d1aca0   __c6xabi_divi
86d1bfa0   __c6xabi_divu
86d12d80   __c6xabi_divul
86d0b9e0   __c6xabi_divull
86d21e60   __c6xabi_errno_addr
86d1abc0   __c6xabi_fltllif
86d1ce40   __c6xabi_fltullf
86d21020   __c6xabi_frcmpyd_div
86d21060   __c6xabi_isinf
86d1e040   __c6xabi_llshl
86d1f4c0   __c6xabi_llshr
86d210e0   __c6xabi_llshru
86d21e80   __c6xabi_negll
86d1cee0   __c6xabi_nround
86d1c060   __c6xabi_remi
86d1cf80   __c6xabi_remu
86d21120   __c6xabi_strasgi_64plus
86d21ea0   __c6xabi_trunc
ffffffff   __c_args__
86d21ec0   __cxa_atexit
86d1bee0   __cxa_finalize
86d21ee0   __cxa_ia64_exit
86d1aca0   __divi
86d1bfa0   __divu
86d71db4   __errno
86d1c060   __remi
86d1cf80   __remu
86d21120   __strasgi_64plus
86d21f00   __xdc__init
86d7031c   __xdc__init__addr
86d21160   _args_main
00000000   _argsize
86d16d00   _auto_init_elf
85c00000   _c_int00
86d1d020   _cleanup
86d77fd0   _cleanup_ptr
86d17bc0   _closefile
86d88620   _ctypes_
86d1c1e0   _doflush
86d77fd4   _dtors_ptr
86d6eb2c   _ft_end
86d77168   _ftable
86d77fec   _lock
86d21f20   _nop
86cfefa0   _printfi
86d21fe0   _register_lock
86d22000   _register_unlock
86d9a328   _stack
86d1f520   _subcull
86cc6768   _tmpnams
86d77ff0   _unlock
86d19220   _wrt_ok
86d77348   aViewRegion
86d22060   abort
86d12f20   atan
86d22080   atexit
86d1ad80   atoi
86d9a200   badcounter
ffffffff   binit
86d9a0fc   car6_out_yuv_len
86d9a0f8   car_yuv_len
86d78010   ccErrorInt
86d77e90   ccXferCompInt
86d1ae60   close
86d040cc   commandQAlloc
86d040c0   commandQCreate
86d04070   commandQDeInit
86d04064   commandQDelete
86d04054   commandQGet
86d03f68   commandQInit
86d03db8   commandQInitJ5ecoProject
86d03dac   commandQOpen
86d03da0   commandQPut
86d9a0a0   control_cmd
86d9a0a8   control_get_value
86d9a0a4   control_set_value
86ce1418   convertYUV2RGB
86cd0370   corner_score_fixed_optimized
86d9a06c   counter_get0_1
86d9a2a4   counter_get0_1_freq
86cdf1a4   createToneCurve
86c00188   crop_startX
86c001d8   crop_startY
86ce6604   cse_calculate_score
86ce72ec   cse_compress_score16
86ce70d4   cse_compress_score32
86ce6a54   cse_core
86ce6530   cse_gradX
86ce64a0   cse_gradY
86ce63e0   cse_normll
86ce6270   cse_sqrt
86d9a070   dataFormat
86d010b4   deInitSharedRegion
86d9a204   debugStopFlag
86d6c248   defInstInitConfig
86d220a0   determineProcId
86c9f028   drvInstance
86c9e1b0   drvObj
86cd94cc   dspAppTask
86d9a0f0   dsp_num
86c00240   dstBuf
86ca3808   edma3DrvChBoundRes
86d6b410   edma3GblCfgParams
86d1e1c0   edma3MemCpy
86d220c0   edma3MemZero
86d9a2f0   edma3NumPaRAMSets
86d1af40   edma3OsProtectEntry
86d1c2a0   edma3OsProtectExit
86d1e240   edma3OsSemCreate
86d212a0   edma3OsSemDelete
86d212e0   edma3OsSemGive
86d1f580   edma3OsSemTake
86d21320   edma3ParamCpy
86cb48e8   edma3_dma_ch_max_val
86cb4918   edma3_link_ch_max_val
86cb4900   edma3_link_ch_min_val
86cb4960   edma3_log_ch_max_val
86cb4948   edma3_qdma_ch_max_val
86cb4930   edma3_qdma_ch_min_val
86d1d340   edma3deinit
86d10a40   edma3init
86ce95b8   edmaDoneCb
86ce9438   edmaMemcpy
86ce92b8   edmaWarpImgCpy
86ce9138   edmaWarpImgCpy1
86ce8fb8   edmaWarpImgCpy2
86ce8e38   edmaWarpImgCpy3
86ce8cb8   edmaWarpImgCpy4
86ce8b2c   edmaWarpImgCpy5
86ce8998   edmaWarpImgCpy6
86ce8798   edmaWarpImgCpy7
86ce8600   edmaYextract
86d71db4   errno
86d1c360   exit
86d9a288   externalMemory
86d71040   fThetaLUTin
86d1b020   fflush
86d9a1ec   firstSetOfFramesReady
86cc4708   focalLength
86d1f5e0   fopen
86d19320   fprintf
86d0e380   fputc
86d028c0   fputs
86d9a28c   frameBuffer0
86d9a290   frameBuffer1
86d9a294   frameBuffer2
86d9a298   frameBuffer3
86d21360   free
86d17f20   fseek
86d9a0e0   gEdma_ChId
86ce9af8   gProcessFunc
86d9a0e4   gTcc
86d9a068   hSemaCpyDone
86d78018   hwIntCcErr
86d77eb0   hwIntTcErr
86d78020   hwIntXferComp
86d9a084   inGALUTPtr
86d9a08c   inGALUTreminderPtr
86cc55f0   inPitch
86cc55f8   inPtr
86cdeb3c   initAnchorPts
86ce9a88   initGAlignRunPersistentMem
86ce9620   initGAlignRunScratchMem
86cdeef8   initGroupLinkedList
86ce4568   initPAlignRunPersistentMem
86ce39d4   initPAlignRunScratchMem
86cdedac   initSampleMap
86d00eb8   initSharedRegion
86ce4fc8   initSynthesisRunPersistentMem
86ce4fa8   initSynthesisRunScratchL2Mem
86ce4f94   initSynthesisRunScratchMem
86d9a07c   inpersmatPtr
86d9a2dc   irqRaised1
86d220e0   isGblConfigRequired
86d9a2ac   lensModel
86d22100   lisrEdma3CCErrHandler0
86d22120   lisrEdma3ComplHandler0
86d22140   lisrEdma3TC0ErrHandler0
86d22160   lisrEdma3TC1ErrHandler0
86d22180   lisrEdma3TC2ErrHandler0
86d221a0   lisrEdma3TC3ErrHandler0
86d221c0   lisrEdma3TC4ErrHandler0
86d221e0   lisrEdma3TC5ErrHandler0
86d22200   lisrEdma3TC6ErrHandler0
86d22220   lisrEdma3TC7ErrHandler0
86d213a0   llabs
86d1d480   lseek
86d1b100   ltoa
86cd6810   main
86d1d520   malloc
86d9a0e8   memRearCamAfterFishEyeCorrection
86d1f640   memccpy
86d1d5c0   memcpy
86d1b1e0   memset
86ce6220   mirrored_image
86d1d660   modf
86c00000   mutualTaskCmdMsg
86c00258   myBopTaskCtxt
86d9a1f8   mySentToA8Counter
86d9a31c   numDsps
86d9a318   numEdma3Instances
86d78028   numEdma3Tc
86d14560   open
86cdf5f8   optTcurvForViewKChannelP
86cc55e8   outPitch
86cc5628   outPtr
86d9a094   outStatLUTPtr
86d9a29c   outputBuffer
86cc4648   overlapRegMarkPts
86cc5630   pAlignOutPtr
86d9a228   pCurPage
86d9a2c8   pMemAlloc
86d9a2c4   pMemCur
86d9a2bc   pMemSt
86d9a2c0   pMemTail
86d9a22c   pNextPage
86d9a09c   pPAlignOutPtr
86d9a230   pParentPage
86ce36c0   pProcessFunc
86d9a20c   pVideoBuf_Front
86d9a210   pVideoBuf_Left
86d9a218   pVideoBuf_Rear
86d9a214   pVideoBuf_Right
86d9a208   pVideoBuf_Synthesis
86cc4678   persmat
86d77820   persmatin
86d1b2c0   printf
86d9a060   pt_externalMemory
86d77ed0   ptrEdma3TcIsrHandler
86d9a2d8   ptrInitCfgArray
86d9a2d4   ptrRMIArray
86ccdf28   qrdcmp
86d1e2c0   readmsg
86d9a0f4   region_id
86d146e0   registerEdma3Interrupts
86d22260   remove
86d9a2cc   resMgrInstance
86cbdd50   resMgrInstanceArray
86cb4978   resMgrObj
86ce4e40   sProcessFunc
86d9a064   saladbowlFocalLength
86d1c420   sampleConfigScr
86d76420   sampleEdma3GblCfgParams
86d1e340   sampleInitXbarEvt
86d70b00   sampleInstInitConfig
86d21420   sampleMapXbarEvtToChan
86d70320   sampleXbarChanInitConfig
86cc4668   seamMarkPts
86ce1224   selectOverlapInliers
86d78030   semHandle
86d0fa40   setvbuf
86d00e04   sharedMemAlloc
86d00d80   sharedMemFree
86d77aa0   sharedRegionConfigTable
86d0a3a0   sin
86d76978   sinatanLUT
86cde344   singleCamFisheyeTransform
86ceed2c   spansion_erase
86cd66d4   spiFlashErase
86cd6528   spiFlashRead
86cd62cc   spiFlashWrite
86cf30b8   spi_claim_bus
86cf3080   spi_claim_bus_back
86cf3044   spi_claim_bus_read_fast
86cf3008   spi_claim_bus_write_fast
86cf3004   spi_cs_activate
86cf3000   spi_cs_deactivate
86cf2ff8   spi_cs_is_valid
86cf9244   spi_flash_cmd
86cf90a0   spi_flash_cmd_read
86cf95a0   spi_flash_cmd_write
86cf9570   spi_flash_free
86cf9314   spi_flash_probe
86cee6c0   spi_flash_probe_spansion
86cf28f0   spi_flash_probe_winbond
86cf9164   spi_flash_read_common
86cf2fec   spi_free_slave
86cf2fe8   spi_init
86cf2fa0   spi_release_bus
86cf2eac   spi_setup_slave
86cf2d20   spi_xfer
86cf2b6c   spi_xfer_read_fast
86cf2a60   spi_xfer_write_fast
86d1f6a0   sprintf
86d15e40   sqrt
86c00228   srcBuf
86cd15e8   svBRIEFprocess
86cd03ac   svBlurImage
86cd14b0   svDefineOutputRegions
86cd05c0   svFindHarrisFeatures
86ce0f40   svFindOverlapValue
86ccf044   svFindPersTransWRT2Inputs_float
86cce680   svFindTransformMatrix
86cc6c6c   svFisheyeTransform
86cdca40   svGALUT_overWrite
86d9a0bc   svGAlignAlgHandle
86cc65fa   svGAlignCreationParams
86cc6764   svGAlignNumMemoryRequests
86cc6620   svGAlign_memPtr
86d9a0c0   svGHandle
86cc6260   svGlobalStruct
86ccded8   svHammingDistance
86ccded0   svMax
86d9a0b4   svPAlignAlgHandle
86cc6490   svPAlignCreationParams
86cc65f8   svPAlignNumMemoryRequests
86cc64b4   svPAlign_memPtr
86d9a0b8   svPHandle
86cc6a4c   svPerspectiveTransform
86ce0768   svPhotometricCorrGain
86cdfcb4   svPhotometricCorrTcurv
86d9a0b0   svSHandle
86cc68c0   svSaladBowlTransform
86ccdc54   svSetFrameCenters
86ccda80   svSortArray
86ccd608   svSortMatrixWIS
86d9a0ac   svSynthesisAlgHandle
86cc632c   svSynthesisCreationParams
86cc648c   svSynthesisNumMemoryRequests
86cc6348   svSynthesis_memPtr
86ccd360   svTransformPoints
86ccd350   svWriteGAlignLUT02_13
86cc75c0   svWriteGAlignLUT02_13DMA
86c00b74   tPage_Flow
86c00b68   tUIFsm
86cc4710   tanasinLUT
86d77ef0   tcErrorInt
86d866b4   ti_sdo_ipc_GateMP_A_invalidClose__C
86d8806c   ti_sdo_ipc_GateMP_A_invalidDelete__C
86d88374   ti_sdo_ipc_GateMP_E_gateUnavailable__C
86d88ebc   ti_sdo_ipc_GateMP_E_localGate__C
86cf0200   ti_sdo_ipc_GateMP_Instance_finalize__F
86ce7460   ti_sdo_ipc_GateMP_Instance_init__F
86d89584   ti_sdo_ipc_GateMP_LM_create__C
86d89b74   ti_sdo_ipc_GateMP_LM_delete__C
86d89b8c   ti_sdo_ipc_GateMP_LM_enter__C
86d89c2c   ti_sdo_ipc_GateMP_LM_leave__C
86d89c30   ti_sdo_ipc_GateMP_LM_open__C
86d6f330   ti_sdo_ipc_GateMP_Module_State_0_remoteCustom1Gates__A
86d78038   ti_sdo_ipc_GateMP_Module_State_0_remoteCustom2Gates__A
86d77598   ti_sdo_ipc_GateMP_Module_State_0_remoteSystemGates__A
86d89c34   ti_sdo_ipc_GateMP_Module__diagsEnabled__C
86d89c38   ti_sdo_ipc_GateMP_Module__diagsIncluded__C
86d89c3c   ti_sdo_ipc_GateMP_Module__diagsMask__C
86d8a1d0   ti_sdo_ipc_GateMP_Module__id__C
86d8a1d4   ti_sdo_ipc_GateMP_Module__loggerDefined__C
86d89c40   ti_sdo_ipc_GateMP_Module__loggerFxn2__C
86d89c44   ti_sdo_ipc_GateMP_Module__loggerFxn4__C
86d89c48   ti_sdo_ipc_GateMP_Module__loggerObj__C
86d6fb30   ti_sdo_ipc_GateMP_Module__root__V
86d6fb38   ti_sdo_ipc_GateMP_Module__state__V
86d89614   ti_sdo_ipc_GateMP_Object__DESC__C
86d890a8   ti_sdo_ipc_GateMP_Object__PARAMS__C
86d19420   ti_sdo_ipc_GateMP_Object__create__S
86d1f760   ti_sdo_ipc_GateMP_Object__delete__S
86d22280   ti_sdo_ipc_GateMP_Params__init__S
86d222a0   ti_sdo_ipc_GateMP_RemoteCustom1Proxy_Object__create__S
86d222c0   ti_sdo_ipc_GateMP_RemoteCustom1Proxy_Object__delete__S
86d222e0   ti_sdo_ipc_GateMP_RemoteCustom1Proxy_Params__init__S
86d22300   ti_sdo_ipc_GateMP_RemoteCustom1Proxy_Proxy__abstract__S
86d22320   ti_sdo_ipc_GateMP_RemoteCustom1Proxy_Proxy__delegate__S
86d22340   ti_sdo_ipc_GateMP_RemoteCustom1Proxy_getReservedMask__E
86d22360   ti_sdo_ipc_GateMP_RemoteCustom1Proxy_sharedMemReq__E
86d22380   ti_sdo_ipc_GateMP_RemoteCustom2Proxy_Object__create__S
86d223a0   ti_sdo_ipc_GateMP_RemoteCustom2Proxy_Object__delete__S
86d223c0   ti_sdo_ipc_GateMP_RemoteCustom2Proxy_Params__init__S
86d223e0   ti_sdo_ipc_GateMP_RemoteCustom2Proxy_Proxy__abstract__S
86d22400   ti_sdo_ipc_GateMP_RemoteCustom2Proxy_Proxy__delegate__S
86d22420   ti_sdo_ipc_GateMP_RemoteCustom2Proxy_getReservedMask__E
86d22440   ti_sdo_ipc_GateMP_RemoteCustom2Proxy_sharedMemReq__E
86d22460   ti_sdo_ipc_GateMP_RemoteSystemProxy_Object__create__S
86d22480   ti_sdo_ipc_GateMP_RemoteSystemProxy_Object__delete__S
86d224a0   ti_sdo_ipc_GateMP_RemoteSystemProxy_Params__init__S
86d224c0   ti_sdo_ipc_GateMP_RemoteSystemProxy_Proxy__abstract__S
86d224e0   ti_sdo_ipc_GateMP_RemoteSystemProxy_Proxy__delegate__S
86d22500   ti_sdo_ipc_GateMP_RemoteSystemProxy_getReservedMask__E
86d22520   ti_sdo_ipc_GateMP_RemoteSystemProxy_sharedMemReq__E
86d22540   ti_sdo_ipc_GateMP_attach__E
86d10c20   ti_sdo_ipc_GateMP_attach__F
86d15fa0   ti_sdo_ipc_GateMP_createLocal__F
86d10e00   ti_sdo_ipc_GateMP_getFreeResource__I
86d22560   ti_sdo_ipc_GateMP_getRegion0ReservedSize__E
86d1c4e0   ti_sdo_ipc_GateMP_getRegion0ReservedSize__F
86d22580   ti_sdo_ipc_GateMP_getSharedAddr__E
86d225a0   ti_sdo_ipc_GateMP_getSharedAddr__F
86d13260   ti_sdo_ipc_GateMP_openRegion0Reserved__F
86cfd940   ti_sdo_ipc_GateMP_setRegion0Reserved__F
86d225c0   ti_sdo_ipc_GateMP_start__E
86d0e5a0   ti_sdo_ipc_GateMP_start__F
86d89c4c   ti_sdo_ipc_Ipc_A_addrNotCacheAligned__C
86d89c50   ti_sdo_ipc_Ipc_A_addrNotInSharedRegion__C
86d89c54   ti_sdo_ipc_Ipc_A_internal__C
86d89c58   ti_sdo_ipc_Ipc_A_invArgument__C
86d89c5c   ti_sdo_ipc_Ipc_A_invParam__C
86d89c60   ti_sdo_ipc_Ipc_A_nullArgument__C
86d89c64   ti_sdo_ipc_Ipc_A_nullPointer__C
86d89c68   ti_sdo_ipc_Ipc_E_internal__C
86d89c6c   ti_sdo_ipc_Ipc_E_nameFailed__C
86d89c70   ti_sdo_ipc_Ipc_E_versionMismatch__C
86d77bb8   ti_sdo_ipc_Ipc_Module_State_0_procEntry__A
86d89c74   ti_sdo_ipc_Ipc_Module__diagsEnabled__C
86d89c78   ti_sdo_ipc_Ipc_Module__diagsIncluded__C
86d89c7c   ti_sdo_ipc_Ipc_Module__diagsMask__C
86d8a1d8   ti_sdo_ipc_Ipc_Module__id__C
86d6fb80   ti_sdo_ipc_Ipc_Module__state__V
86d8a1dc   ti_sdo_ipc_Ipc_generateSlaveDataForHost__C
86d89c80   ti_sdo_ipc_Ipc_numUserFxns__C
86cff860   ti_sdo_ipc_Ipc_procSyncFinish__I
86cfb200   ti_sdo_ipc_Ipc_procSyncStart__I
86d89c84   ti_sdo_ipc_Ipc_procSync__C
86d89bc0   ti_sdo_ipc_Ipc_userFxns__A
86d89c88   ti_sdo_ipc_Ipc_userFxns__C
86d0bea0   ti_sdo_ipc_ListMP_Instance_finalize__F
86cef940   ti_sdo_ipc_ListMP_Instance_init__F
86d89c8c   ti_sdo_ipc_ListMP_Module__diagsEnabled__C
86d89c90   ti_sdo_ipc_ListMP_Module__diagsIncluded__C
86d89c94   ti_sdo_ipc_ListMP_Module__diagsMask__C
86d8a1e0   ti_sdo_ipc_ListMP_Module__id__C
86d6fb8c   ti_sdo_ipc_ListMP_Module__root__V
86d6fb94   ti_sdo_ipc_ListMP_Module__state__V
86d89634   ti_sdo_ipc_ListMP_Object__DESC__C
86d8919c   ti_sdo_ipc_ListMP_Object__PARAMS__C
86d19520   ti_sdo_ipc_ListMP_Object__create__S
86d1f7c0   ti_sdo_ipc_ListMP_Object__delete__S
86d225e0   ti_sdo_ipc_ListMP_Params__init__S
86d89c98   ti_sdo_ipc_MessageQ_A_heapIdInvalid__C
86d89c9c   ti_sdo_ipc_MessageQ_A_invalidMsg__C
86d89ca0   ti_sdo_ipc_MessageQ_A_invalidObj__C
86d89ca4   ti_sdo_ipc_MessageQ_A_invalidParam__C
86d89ca8   ti_sdo_ipc_MessageQ_A_invalidQueueId__C
86d89cac   ti_sdo_ipc_MessageQ_A_procIdInvalid__C
86d89cb0   ti_sdo_ipc_MessageQ_A_unregisteredTransport__C
86d89cb4   ti_sdo_ipc_MessageQ_E_maxReached__C
86d89cb8   ti_sdo_ipc_MessageQ_E_nameFailed__C
86d89cbc   ti_sdo_ipc_MessageQ_Instance_State_highList__O
86d89cc0   ti_sdo_ipc_MessageQ_Instance_State_normalList__O
86d0d640   ti_sdo_ipc_MessageQ_Instance_finalize__F
86d00100   ti_sdo_ipc_MessageQ_Instance_init__F
86d89cc4   ti_sdo_ipc_MessageQ_LM_get__C
86d89cc8   ti_sdo_ipc_MessageQ_LM_putLocal__C
86d77ff8   ti_sdo_ipc_MessageQ_Module_State_0_heaps__A
86d77f10   ti_sdo_ipc_MessageQ_Module_State_0_transports__A
86d89ccc   ti_sdo_ipc_MessageQ_Module__diagsEnabled__C
86d89cd0   ti_sdo_ipc_MessageQ_Module__diagsIncluded__C
86d89cd4   ti_sdo_ipc_MessageQ_Module__diagsMask__C
86d8a1e4   ti_sdo_ipc_MessageQ_Module__id__C
86d8a1e8   ti_sdo_ipc_MessageQ_Module__loggerDefined__C
86d89cd8   ti_sdo_ipc_MessageQ_Module__loggerFxn4__C
86d89cdc   ti_sdo_ipc_MessageQ_Module__loggerObj__C
86d6fb98   ti_sdo_ipc_MessageQ_Module__root__V
86d6fba0   ti_sdo_ipc_MessageQ_Module__state__V
86d22600   ti_sdo_ipc_MessageQ_Module_startup__E
86d18160   ti_sdo_ipc_MessageQ_Module_startup__F
86d89654   ti_sdo_ipc_MessageQ_Object__DESC__C
86d899d4   ti_sdo_ipc_MessageQ_Object__PARAMS__C
86d89ce0   ti_sdo_ipc_MessageQ_Object__count__C
86d18280   ti_sdo_ipc_MessageQ_Object__create__S
86d1f820   ti_sdo_ipc_MessageQ_Object__delete__S
86d22620   ti_sdo_ipc_MessageQ_Object__get__S
86d89ce4   ti_sdo_ipc_MessageQ_Object__heap__C
86d22640   ti_sdo_ipc_MessageQ_Params__init__S
86d22660   ti_sdo_ipc_MessageQ_SetupTransportProxy_attach__E
86d22680   ti_sdo_ipc_MessageQ_SetupTransportProxy_isRegistered__E
86d226a0   ti_sdo_ipc_MessageQ_SetupTransportProxy_sharedMemReq__E
86d89ce8   ti_sdo_ipc_MessageQ_maxRuntimeEntries__C
86d226c0   ti_sdo_ipc_MessageQ_registerTransport__E
86d149e0   ti_sdo_ipc_MessageQ_registerTransport__F
86d226e0   ti_sdo_ipc_MessageQ_unregisterTransport__E
86d14b60   ti_sdo_ipc_MessageQ_unregisterTransport__F
86d89cec   ti_sdo_ipc_Notify_A_alreadyRegistered__C
86d89cf0   ti_sdo_ipc_Notify_A_internal__C
86d89cf4   ti_sdo_ipc_Notify_A_invArgument__C
86d89cf8   ti_sdo_ipc_Notify_A_notRegistered__C
86d89cfc   ti_sdo_ipc_Notify_A_reservedEvent__C
86d19620   ti_sdo_ipc_Notify_Instance_finalize__F
86d01180   ti_sdo_ipc_Notify_Instance_init__F
86d22700   ti_sdo_ipc_Notify_Module_GateProxy_enter__E
86d22720   ti_sdo_ipc_Notify_Module_GateProxy_leave__E
86d78040   ti_sdo_ipc_Notify_Module_State_0_notifyHandles_0__A
86d78048   ti_sdo_ipc_Notify_Module_State_0_notifyHandles_1__A
86d78050   ti_sdo_ipc_Notify_Module_State_0_notifyHandles_2__A
86d78058   ti_sdo_ipc_Notify_Module_State_0_notifyHandles_3__A
86cc68b0   ti_sdo_ipc_Notify_Module_State_0_notifyHandles__A
86d89d00   ti_sdo_ipc_Notify_Module__diagsEnabled__C
86d89d04   ti_sdo_ipc_Notify_Module__diagsIncluded__C
86d89d08   ti_sdo_ipc_Notify_Module__diagsMask__C
86d89d0c   ti_sdo_ipc_Notify_Module__gateObj__C
86d8a1ec   ti_sdo_ipc_Notify_Module__id__C
86d6fbbc   ti_sdo_ipc_Notify_Module__root__V
86d6fbc4   ti_sdo_ipc_Notify_Module__state__V
86d22740   ti_sdo_ipc_Notify_Module_startup__E
86d14ce0   ti_sdo_ipc_Notify_Module_startup__F
86d89674   ti_sdo_ipc_Notify_Object__DESC__C
86d89a28   ti_sdo_ipc_Notify_Object__PARAMS__C
86d183a0   ti_sdo_ipc_Notify_Object__create__S
86d89d10   ti_sdo_ipc_Notify_Object__heap__C
86d22760   ti_sdo_ipc_Notify_SetupProxy_attach__E
86d22780   ti_sdo_ipc_Notify_SetupProxy_numIntLines__E
86d227a0   ti_sdo_ipc_Notify_SetupProxy_sharedMemReq__E
86d227c0   ti_sdo_ipc_Notify_exec__E
86d170c0   ti_sdo_ipc_Notify_exec__F
86d89d14   ti_sdo_ipc_Notify_numEvents__C
86d8a1f0   ti_sdo_ipc_Notify_numLines__C
86d8a1f4   ti_sdo_ipc_Notify_reservedEvents__C
86d89d18   ti_sdo_ipc_Notify_sendEventPollCount__C
86d89d1c   ti_sdo_ipc_SharedRegion_A_addrOutOfRange__C
86d89d20   ti_sdo_ipc_SharedRegion_A_alreadyExists__C
86d89d24   ti_sdo_ipc_SharedRegion_A_cacheLineSizeIsZero__C
86d89d28   ti_sdo_ipc_SharedRegion_A_idTooLarge__C
86d89d2c   ti_sdo_ipc_SharedRegion_A_noHeap__C
86d89d30   ti_sdo_ipc_SharedRegion_A_overlap__C
86d89d34   ti_sdo_ipc_SharedRegion_A_region0Clear__C
86d89d38   ti_sdo_ipc_SharedRegion_A_region0Invalid__C
86d89d3c   ti_sdo_ipc_SharedRegion_A_regionInvalid__C
86d89d40   ti_sdo_ipc_SharedRegion_A_reserveTooMuch__C
86d89d44   ti_sdo_ipc_SharedRegion_INVALIDSRPTR__C
86d77c08   ti_sdo_ipc_SharedRegion_Module_State_0_regions__A
86d89d48   ti_sdo_ipc_SharedRegion_Module__diagsEnabled__C
86d89d4c   ti_sdo_ipc_SharedRegion_Module__diagsIncluded__C
86d89d50   ti_sdo_ipc_SharedRegion_Module__diagsMask__C
86d8a1f8   ti_sdo_ipc_SharedRegion_Module__id__C
86d6fbcc   ti_sdo_ipc_SharedRegion_Module__state__V
86d227e0   ti_sdo_ipc_SharedRegion_attach__E
86d19720   ti_sdo_ipc_SharedRegion_attach__F
86d89d54   ti_sdo_ipc_SharedRegion_cacheLineSize__C
86d0c100   ti_sdo_ipc_SharedRegion_checkOverlap__I
86d22800   ti_sdo_ipc_SharedRegion_clearReservedMemory__E
86d19820   ti_sdo_ipc_SharedRegion_clearReservedMemory__F
86d8a1fc   ti_sdo_ipc_SharedRegion_numEntries__C
86d89d58   ti_sdo_ipc_SharedRegion_numOffsetBits__C
86d89d5c   ti_sdo_ipc_SharedRegion_offsetMask__C
86d22820   ti_sdo_ipc_SharedRegion_reserveMemory__E
86d01d80   ti_sdo_ipc_SharedRegion_reserveMemory__F
86d22840   ti_sdo_ipc_SharedRegion_start__E
86cf61a0   ti_sdo_ipc_SharedRegion_start__F
86d8a200   ti_sdo_ipc_SharedRegion_translate__C
86d89d60   ti_sdo_ipc_family_c6a8149_InterruptDsp_Module__diagsEnabled__C
86d89d64   ti_sdo_ipc_family_c6a8149_InterruptDsp_Module__diagsIncluded__C
86d89d68   ti_sdo_ipc_family_c6a8149_InterruptDsp_Module__diagsMask__C
86d8a204   ti_sdo_ipc_family_c6a8149_InterruptDsp_Module__id__C
86d6fbd0   ti_sdo_ipc_family_c6a8149_InterruptDsp_Module__state__V
86d89d6c   ti_sdo_ipc_family_c6a8149_InterruptDsp_eveProcId__C
86d89d70   ti_sdo_ipc_family_c6a8149_InterruptDsp_hostProcId__C
86d1b3a0   ti_sdo_ipc_family_c6a8149_InterruptDsp_intClear__E
86d13400   ti_sdo_ipc_family_c6a8149_InterruptDsp_intDisable__E
86d135a0   ti_sdo_ipc_family_c6a8149_InterruptDsp_intEnable__E
86d1e3c0   ti_sdo_ipc_family_c6a8149_InterruptDsp_intEveShmStub__I
86cfddc0   ti_sdo_ipc_family_c6a8149_InterruptDsp_intRegister__E
86d19920   ti_sdo_ipc_family_c6a8149_InterruptDsp_intSend__E
86d17200   ti_sdo_ipc_family_c6a8149_InterruptDsp_intShmStub__I
86d0d880   ti_sdo_ipc_family_c6a8149_InterruptDsp_intUnregister__E
86d89d74   ti_sdo_ipc_family_c6a8149_InterruptDsp_mailboxBaseAddr__C
86d89d78   ti_sdo_ipc_family_c6a8149_InterruptDsp_mailboxEveBaseAddr__C
86d89d7c   ti_sdo_ipc_family_c6a8149_InterruptDsp_videoProcId__C
86d89d80   ti_sdo_ipc_family_c6a8149_InterruptDsp_vpssProcId__C
86d0fc40   ti_sdo_ipc_family_c6a8149_NotifySetup_attach__E
86d89d84   ti_sdo_ipc_family_c6a8149_NotifySetup_dspIntVectIdForEve__C
86d89d88   ti_sdo_ipc_family_c6a8149_NotifySetup_dspIntVectId__C
86d89d8c   ti_sdo_ipc_family_c6a8149_NotifySetup_dspProcId__C
86d89d90   ti_sdo_ipc_family_c6a8149_NotifySetup_eveIntVectId__C
86d89d94   ti_sdo_ipc_family_c6a8149_NotifySetup_eveProcId__C
86d1f880   ti_sdo_ipc_family_c6a8149_NotifySetup_numIntLines__E
86d1b480   ti_sdo_ipc_family_c6a8149_NotifySetup_sharedMemReq__E
86d89d98   ti_sdo_ipc_family_c6a8149_NotifySetup_videoProcId__C
86d89d9c   ti_sdo_ipc_family_c6a8149_NotifySetup_vpssProcId__C
86d89da0   ti_sdo_ipc_gates_GateHWSpinlock_A_invSpinLockNum__C
86d1f8e0   ti_sdo_ipc_gates_GateHWSpinlock_Handle__label__S
86d07f40   ti_sdo_ipc_gates_GateHWSpinlock_Instance_init__F
86d89da4   ti_sdo_ipc_gates_GateHWSpinlock_LM_create__C
86d89da8   ti_sdo_ipc_gates_GateHWSpinlock_LM_enter__C
86d89dac   ti_sdo_ipc_gates_GateHWSpinlock_LM_leave__C
86d89db0   ti_sdo_ipc_gates_GateHWSpinlock_LM_open__C
86d891c8   ti_sdo_ipc_gates_GateHWSpinlock_Module__FXNS__C
86d89db4   ti_sdo_ipc_gates_GateHWSpinlock_Module__diagsEnabled__C
86d89db8   ti_sdo_ipc_gates_GateHWSpinlock_Module__diagsIncluded__C
86d89dbc   ti_sdo_ipc_gates_GateHWSpinlock_Module__diagsMask__C
86d8a208   ti_sdo_ipc_gates_GateHWSpinlock_Module__id__C
86d8a20c   ti_sdo_ipc_gates_GateHWSpinlock_Module__loggerDefined__C
86d89dc0   ti_sdo_ipc_gates_GateHWSpinlock_Module__loggerFxn1__C
86d89dc4   ti_sdo_ipc_gates_GateHWSpinlock_Module__loggerFxn2__C
86d89dc8   ti_sdo_ipc_gates_GateHWSpinlock_Module__loggerObj__C
86d6fbf4   ti_sdo_ipc_gates_GateHWSpinlock_Module__root__V
86d22860   ti_sdo_ipc_gates_GateHWSpinlock_Module_startup__E
86d16100   ti_sdo_ipc_gates_GateHWSpinlock_Module_startup__F
86d89694   ti_sdo_ipc_gates_GateHWSpinlock_Object__DESC__C
86d8938c   ti_sdo_ipc_gates_GateHWSpinlock_Object__PARAMS__C
86d1d700   ti_sdo_ipc_gates_GateHWSpinlock_Object__create__S
86d1f940   ti_sdo_ipc_gates_GateHWSpinlock_Object__delete__S
86d22880   ti_sdo_ipc_gates_GateHWSpinlock_Params__init__S
86d89dcc   ti_sdo_ipc_gates_GateHWSpinlock_baseAddr__C
86d13740   ti_sdo_ipc_gates_GateHWSpinlock_enter__E
86d228a0   ti_sdo_ipc_gates_GateHWSpinlock_getReservedMask__E
86d184c0   ti_sdo_ipc_gates_GateHWSpinlock_leave__E
86d89dd0   ti_sdo_ipc_gates_GateHWSpinlock_numLocks__C
86d228c0   ti_sdo_ipc_gates_GateHWSpinlock_query__E
86d228e0   ti_sdo_ipc_gates_GateHWSpinlock_query__F
86d89be0   ti_sdo_ipc_gates_GateHWSpinlock_reservedMaskArr__A
86d89dd4   ti_sdo_ipc_gates_GateHWSpinlock_reservedMaskArr__C
86d22900   ti_sdo_ipc_gates_GateHWSpinlock_sharedMemReq__E
86d89dd8   ti_sdo_ipc_gates_GateMPSupportNull_A_invalidAction__C
86d1f9a0   ti_sdo_ipc_gates_GateMPSupportNull_Handle__label__S
86d22920   ti_sdo_ipc_gates_GateMPSupportNull_Instance_init__F
86d891f4   ti_sdo_ipc_gates_GateMPSupportNull_Module__FXNS__C
86d89ddc   ti_sdo_ipc_gates_GateMPSupportNull_Module__diagsEnabled__C
86d89de0   ti_sdo_ipc_gates_GateMPSupportNull_Module__diagsIncluded__C
86d89de4   ti_sdo_ipc_gates_GateMPSupportNull_Module__diagsMask__C
86d8a210   ti_sdo_ipc_gates_GateMPSupportNull_Module__id__C
86d6fbfc   ti_sdo_ipc_gates_GateMPSupportNull_Module__root__V
86d896b4   ti_sdo_ipc_gates_GateMPSupportNull_Object__DESC__C
86d893b0   ti_sdo_ipc_gates_GateMPSupportNull_Object__PARAMS__C
86d1d7a0   ti_sdo_ipc_gates_GateMPSupportNull_Object__create__S
86d1fa00   ti_sdo_ipc_gates_GateMPSupportNull_Object__delete__S
86d22940   ti_sdo_ipc_gates_GateMPSupportNull_Params__init__S
86d89de8   ti_sdo_ipc_gates_GateMPSupportNull_action__C
86d19a20   ti_sdo_ipc_gates_GateMPSupportNull_enter__E
86d22960   ti_sdo_ipc_gates_GateMPSupportNull_getReservedMask__E
86d19b20   ti_sdo_ipc_gates_GateMPSupportNull_leave__E
86d22980   ti_sdo_ipc_gates_GateMPSupportNull_query__E
86d229a0   ti_sdo_ipc_gates_GateMPSupportNull_query__F
86d229c0   ti_sdo_ipc_gates_GateMPSupportNull_sharedMemReq__E
86d89dec   ti_sdo_ipc_gates_GatePeterson_E_gateRemotelyOpened__C
86d1fa60   ti_sdo_ipc_gates_GatePeterson_Handle__label__S
86d1fac0   ti_sdo_ipc_gates_GatePeterson_Instance_finalize__F
86cfd4a0   ti_sdo_ipc_gates_GatePeterson_Instance_init__F
86d89220   ti_sdo_ipc_gates_GatePeterson_Module__FXNS__C
86d89df0   ti_sdo_ipc_gates_GatePeterson_Module__diagsEnabled__C
86d89df4   ti_sdo_ipc_gates_GatePeterson_Module__diagsIncluded__C
86d89df8   ti_sdo_ipc_gates_GatePeterson_Module__diagsMask__C
86d8a214   ti_sdo_ipc_gates_GatePeterson_Module__id__C
86d6fc04   ti_sdo_ipc_gates_GatePeterson_Module__root__V
86d896d4   ti_sdo_ipc_gates_GatePeterson_Object__DESC__C
86d893d4   ti_sdo_ipc_gates_GatePeterson_Object__PARAMS__C
86d185e0   ti_sdo_ipc_gates_GatePeterson_Object__create__S
86d1fb20   ti_sdo_ipc_gates_GatePeterson_Object__delete__S
86d229e0   ti_sdo_ipc_gates_GatePeterson_Params__init__S
86d14e60   ti_sdo_ipc_gates_GatePeterson_enter__E
86d22a00   ti_sdo_ipc_gates_GatePeterson_getReservedMask__E
86d1d840   ti_sdo_ipc_gates_GatePeterson_leave__E
86d89dfc   ti_sdo_ipc_gates_GatePeterson_numInstances__C
86d22a20   ti_sdo_ipc_gates_GatePeterson_query__E
86d22a40   ti_sdo_ipc_gates_GatePeterson_query__F
86d21460   ti_sdo_ipc_gates_GatePeterson_sharedMemReq__E
86d89e00   ti_sdo_ipc_heaps_HeapBufMP_A_badAlignment__C
86d89e04   ti_sdo_ipc_heaps_HeapBufMP_A_invBlockFreed__C
86d89e08   ti_sdo_ipc_heaps_HeapBufMP_E_alignTooLarge__C
86d89e0c   ti_sdo_ipc_heaps_HeapBufMP_E_exactFail__C
86d89e10   ti_sdo_ipc_heaps_HeapBufMP_E_noBlocksLeft__C
86d89e14   ti_sdo_ipc_heaps_HeapBufMP_E_sizeTooLarge__C
86d1fb80   ti_sdo_ipc_heaps_HeapBufMP_Handle__label__S
86d091c0   ti_sdo_ipc_heaps_HeapBufMP_Instance_finalize__F
86cf12c0   ti_sdo_ipc_heaps_HeapBufMP_Instance_init__F
86d8924c   ti_sdo_ipc_heaps_HeapBufMP_Module__FXNS__C
86d89e18   ti_sdo_ipc_heaps_HeapBufMP_Module__diagsEnabled__C
86d89e1c   ti_sdo_ipc_heaps_HeapBufMP_Module__diagsIncluded__C
86d89e20   ti_sdo_ipc_heaps_HeapBufMP_Module__diagsMask__C
86d8a218   ti_sdo_ipc_heaps_HeapBufMP_Module__id__C
86d6fc0c   ti_sdo_ipc_heaps_HeapBufMP_Module__root__V
86d6fc14   ti_sdo_ipc_heaps_HeapBufMP_Module__state__V
86d896f4   ti_sdo_ipc_heaps_HeapBufMP_Object__DESC__C
86d89038   ti_sdo_ipc_heaps_HeapBufMP_Object__PARAMS__C
86d19c20   ti_sdo_ipc_heaps_HeapBufMP_Object__create__S
86d1fbe0   ti_sdo_ipc_heaps_HeapBufMP_Object__delete__S
86d22a60   ti_sdo_ipc_heaps_HeapBufMP_Params__init__S
86d10fe0   ti_sdo_ipc_heaps_HeapBufMP_alloc__E
86d068a0   ti_sdo_ipc_heaps_HeapBufMP_free__E
86d22a80   ti_sdo_ipc_heaps_HeapBufMP_getStats__E
86d1b560   ti_sdo_ipc_heaps_HeapBufMP_getStats__F
86d22aa0   ti_sdo_ipc_heaps_HeapBufMP_isBlocking__E
86d22ac0   ti_sdo_ipc_heaps_HeapBufMP_isBlocking__F
86cf1aa0   ti_sdo_ipc_heaps_HeapBufMP_postInit__I
86d8a21c   ti_sdo_ipc_heaps_HeapBufMP_trackAllocs__C
86d89e24   ti_sdo_ipc_heaps_HeapMemMP_A_align__C
86d89e28   ti_sdo_ipc_heaps_HeapMemMP_A_heapSize__C
86d89e2c   ti_sdo_ipc_heaps_HeapMemMP_A_invalidFree__C
86d89e30   ti_sdo_ipc_heaps_HeapMemMP_A_zeroBlock__C
86d89e34   ti_sdo_ipc_heaps_HeapMemMP_E_memory__C
86d1fc40   ti_sdo_ipc_heaps_HeapMemMP_Handle__label__S
86d0c360   ti_sdo_ipc_heaps_HeapMemMP_Instance_finalize__F
86cf3960   ti_sdo_ipc_heaps_HeapMemMP_Instance_init__F
86d89274   ti_sdo_ipc_heaps_HeapMemMP_Module__FXNS__C
86d89e38   ti_sdo_ipc_heaps_HeapMemMP_Module__diagsEnabled__C
86d89e3c   ti_sdo_ipc_heaps_HeapMemMP_Module__diagsIncluded__C
86d89e40   ti_sdo_ipc_heaps_HeapMemMP_Module__diagsMask__C
86d8a220   ti_sdo_ipc_heaps_HeapMemMP_Module__id__C
86d6fc18   ti_sdo_ipc_heaps_HeapMemMP_Module__root__V
86d6fc20   ti_sdo_ipc_heaps_HeapMemMP_Module__state__V
86d89714   ti_sdo_ipc_heaps_HeapMemMP_Object__DESC__C
86d89110   ti_sdo_ipc_heaps_HeapMemMP_Object__PARAMS__C
86d19d20   ti_sdo_ipc_heaps_HeapMemMP_Object__create__S
86d1fca0   ti_sdo_ipc_heaps_HeapMemMP_Object__delete__S
86d22ae0   ti_sdo_ipc_heaps_HeapMemMP_Params__init__S
86cebde0   ti_sdo_ipc_heaps_HeapMemMP_alloc__E
86cec900   ti_sdo_ipc_heaps_HeapMemMP_free__E
86cfc680   ti_sdo_ipc_heaps_HeapMemMP_getStats__E
86d22b00   ti_sdo_ipc_heaps_HeapMemMP_isBlocking__E
86d22b20   ti_sdo_ipc_heaps_HeapMemMP_isBlocking__F
86d00960   ti_sdo_ipc_heaps_HeapMemMP_postInit__I
86d89e44   ti_sdo_ipc_interfaces_IGateMPSupport_Interface__BASE__C
86d89e48   ti_sdo_ipc_interfaces_IMessageQTransport_Interface__BASE__C
86d89e4c   ti_sdo_ipc_interfaces_INotifyDriver_Interface__BASE__C
86d1fd00   ti_sdo_ipc_notifyDrivers_NotifyDriverShm_Handle__label__S
86d1e440   ti_sdo_ipc_notifyDrivers_NotifyDriverShm_Instance_finalize__F
86cfbc80   ti_sdo_ipc_notifyDrivers_NotifyDriverShm_Instance_init__F
86d22b40   ti_sdo_ipc_notifyDrivers_NotifyDriverShm_InterruptProxy_intClear__E
86d22b60   ti_sdo_ipc_notifyDrivers_NotifyDriverShm_InterruptProxy_intDisable__E
86d22b80   ti_sdo_ipc_notifyDrivers_NotifyDriverShm_InterruptProxy_intEnable__E
86d22ba0   ti_sdo_ipc_notifyDrivers_NotifyDriverShm_InterruptProxy_intRegister__E
86d22bc0   ti_sdo_ipc_notifyDrivers_NotifyDriverShm_InterruptProxy_intSend__E
86d22be0   ti_sdo_ipc_notifyDrivers_NotifyDriverShm_InterruptProxy_intUnregister__E
86d89070   ti_sdo_ipc_notifyDrivers_NotifyDriverShm_Module__FXNS__C
86d89e50   ti_sdo_ipc_notifyDrivers_NotifyDriverShm_Module__diagsEnabled__C
86d89e54   ti_sdo_ipc_notifyDrivers_NotifyDriverShm_Module__diagsIncluded__C
86d89e58   ti_sdo_ipc_notifyDrivers_NotifyDriverShm_Module__diagsMask__C
86d8a224   ti_sdo_ipc_notifyDrivers_NotifyDriverShm_Module__id__C
86d6fc24   ti_sdo_ipc_notifyDrivers_NotifyDriverShm_Module__root__V
86d89734   ti_sdo_ipc_notifyDrivers_NotifyDriverShm_Object__DESC__C
86d890dc   ti_sdo_ipc_notifyDrivers_NotifyDriverShm_Object__PARAMS__C
86d19e20   ti_sdo_ipc_notifyDrivers_NotifyDriverShm_Object__create__S
86d1fd60   ti_sdo_ipc_notifyDrivers_NotifyDriverShm_Object__delete__S
86d89e5c   ti_sdo_ipc_notifyDrivers_NotifyDriverShm_Object__heap__C
86d22c00   ti_sdo_ipc_notifyDrivers_NotifyDriverShm_Params__init__S
86d0c5c0   ti_sdo_ipc_notifyDrivers_NotifyDriverShm_disableEvent__E
86d22c20   ti_sdo_ipc_notifyDrivers_NotifyDriverShm_disable__E
86d138e0   ti_sdo_ipc_notifyDrivers_NotifyDriverShm_enableEvent__E
86d22c40   ti_sdo_ipc_notifyDrivers_NotifyDriverShm_enable__E
86d06b80   ti_sdo_ipc_notifyDrivers_NotifyDriverShm_isr__I
86d11e80   ti_sdo_ipc_notifyDrivers_NotifyDriverShm_registerEvent__E
86d0fe40   ti_sdo_ipc_notifyDrivers_NotifyDriverShm_sendEvent__E
86d1fdc0   ti_sdo_ipc_notifyDrivers_NotifyDriverShm_setNotifyHandle__E
86d22c60   ti_sdo_ipc_notifyDrivers_NotifyDriverShm_sharedMemReq__E
86d0c820   ti_sdo_ipc_notifyDrivers_NotifyDriverShm_sharedMemReq__F
86d14fe0   ti_sdo_ipc_notifyDrivers_NotifyDriverShm_unregisterEvent__E
86d89e60   ti_sdo_ipc_nsremote_NameServerRemoteNotify_A_invalidValueLen__C
86d1fe20   ti_sdo_ipc_nsremote_NameServerRemoteNotify_Handle__label__S
86d89e64   ti_sdo_ipc_nsremote_NameServerRemoteNotify_Instance_State_semMultiBlock__O
86d89e68   ti_sdo_ipc_nsremote_NameServerRemoteNotify_Instance_State_semRemoteWait__O
86d89e6c   ti_sdo_ipc_nsremote_NameServerRemoteNotify_Instance_State_swiObj__O
86d18700   ti_sdo_ipc_nsremote_NameServerRemoteNotify_Instance_finalize__F
86cf4e80   ti_sdo_ipc_nsremote_NameServerRemoteNotify_Instance_init__F
86d8929c   ti_sdo_ipc_nsremote_NameServerRemoteNotify_Module__FXNS__C
86d89e70   ti_sdo_ipc_nsremote_NameServerRemoteNotify_Module__diagsEnabled__C
86d89e74   ti_sdo_ipc_nsremote_NameServerRemoteNotify_Module__diagsIncluded__C
86d89e78   ti_sdo_ipc_nsremote_NameServerRemoteNotify_Module__diagsMask__C
86d8a228   ti_sdo_ipc_nsremote_NameServerRemoteNotify_Module__id__C
86d6fc2c   ti_sdo_ipc_nsremote_NameServerRemoteNotify_Module__root__V
86d89754   ti_sdo_ipc_nsremote_NameServerRemoteNotify_Object__DESC__C
86d89774   ti_sdo_ipc_nsremote_NameServerRemoteNotify_Object__PARAMS__C
86d18820   ti_sdo_ipc_nsremote_NameServerRemoteNotify_Object__create__S
86d1fe80   ti_sdo_ipc_nsremote_NameServerRemoteNotify_Object__delete__S
86d22c80   ti_sdo_ipc_nsremote_NameServerRemoteNotify_Object__first__S
86d22ca0   ti_sdo_ipc_nsremote_NameServerRemoteNotify_Object__next__S
86d22cc0   ti_sdo_ipc_nsremote_NameServerRemoteNotify_Params__init__S
86d13a80   ti_sdo_ipc_nsremote_NameServerRemoteNotify_attach__E
86d22ce0   ti_sdo_ipc_nsremote_NameServerRemoteNotify_cbFxn__I
86d1e4c0   ti_sdo_ipc_nsremote_NameServerRemoteNotify_detach__E
86d22d00   ti_sdo_ipc_nsremote_NameServerRemoteNotify_get__E
86cfb740   ti_sdo_ipc_nsremote_NameServerRemoteNotify_get__F
86d89e7c   ti_sdo_ipc_nsremote_NameServerRemoteNotify_notifyEventId__C
86d214a0   ti_sdo_ipc_nsremote_NameServerRemoteNotify_sharedMemReq__E
86cfe240   ti_sdo_ipc_nsremote_NameServerRemoteNotify_swiFxn__I
86d89e80   ti_sdo_ipc_nsremote_NameServerRemoteNotify_timeout__C
86d77fb0   ti_sdo_ipc_transports_TransportShmSetup_Module_State_0_handles__A
86d6fc3c   ti_sdo_ipc_transports_TransportShmSetup_Module__state__V
86d19f20   ti_sdo_ipc_transports_TransportShmSetup_attach__E
86d22d20   ti_sdo_ipc_transports_TransportShmSetup_isRegistered__E
86d89e84   ti_sdo_ipc_transports_TransportShmSetup_priority__C
86d1fee0   ti_sdo_ipc_transports_TransportShmSetup_sharedMemReq__E
86d1ff40   ti_sdo_ipc_transports_TransportShm_Handle__label__S
86d89e88   ti_sdo_ipc_transports_TransportShm_Instance_State_swiObj__O
86d0e7c0   ti_sdo_ipc_transports_TransportShm_Instance_finalize__F
86cef020   ti_sdo_ipc_transports_TransportShm_Instance_init__F
86d892c4   ti_sdo_ipc_transports_TransportShm_Module__FXNS__C
86d89e8c   ti_sdo_ipc_transports_TransportShm_Module__diagsEnabled__C
86d89e90   ti_sdo_ipc_transports_TransportShm_Module__diagsIncluded__C
86d89e94   ti_sdo_ipc_transports_TransportShm_Module__diagsMask__C
86d8a22c   ti_sdo_ipc_transports_TransportShm_Module__id__C
86d6fc34   ti_sdo_ipc_transports_TransportShm_Module__root__V
86d89794   ti_sdo_ipc_transports_TransportShm_Object__DESC__C
86d892ec   ti_sdo_ipc_transports_TransportShm_Object__PARAMS__C
86d18940   ti_sdo_ipc_transports_TransportShm_Object__create__S
86d1ffa0   ti_sdo_ipc_transports_TransportShm_Object__delete__S
86d22d40   ti_sdo_ipc_transports_TransportShm_Params__init__S
86d22d60   ti_sdo_ipc_transports_TransportShm_control__E
86d22d80   ti_sdo_ipc_transports_TransportShm_getStatus__E
86d8a230   ti_sdo_ipc_transports_TransportShm_notifyEventId__C
86d22da0   ti_sdo_ipc_transports_TransportShm_notifyFxn__I
86d22dc0   ti_sdo_ipc_transports_TransportShm_openByAddr__E
86d05720   ti_sdo_ipc_transports_TransportShm_openByAddr__F
86cfa1a0   ti_sdo_ipc_transports_TransportShm_put__E
86d22de0   ti_sdo_ipc_transports_TransportShm_setErrFxn__E
86d22e00   ti_sdo_ipc_transports_TransportShm_setErrFxn__F
86d22e20   ti_sdo_ipc_transports_TransportShm_sharedMemReq__E
86d17340   ti_sdo_ipc_transports_TransportShm_sharedMemReq__F
86d1e540   ti_sdo_ipc_transports_TransportShm_swiFxn__I
86d89e98   ti_sdo_utils_INameServerRemote_Interface__BASE__C
86d22e40   ti_sdo_utils_List_Instance_init__F
86d6fc40   ti_sdo_utils_List_Module__root__V
86d897b4   ti_sdo_utils_List_Object__DESC__C
86d89a40   ti_sdo_utils_List_Object__PARAMS__C
86d1e5c0   ti_sdo_utils_List_Object__create__S
86d22e60   ti_sdo_utils_List_Object__destruct__S
86d22e80   ti_sdo_utils_List_Object__get__S
86d89e9c   ti_sdo_utils_MultiProc_A_invalidMultiProcId__C
86d89ea0   ti_sdo_utils_MultiProc_Module__diagsEnabled__C
86d89ea4   ti_sdo_utils_MultiProc_Module__diagsIncluded__C
86d89ea8   ti_sdo_utils_MultiProc_Module__diagsMask__C
86d8a234   ti_sdo_utils_MultiProc_Module__id__C
86d6fc48   ti_sdo_utils_MultiProc_Module__state__V
86d22ea0   ti_sdo_utils_MultiProc_getClusterId__E
86d22ec0   ti_sdo_utils_MultiProc_getClusterId__F
86d89b90   ti_sdo_utils_MultiProc_nameList__A
86d89eac   ti_sdo_utils_MultiProc_nameList__C
86d8a238   ti_sdo_utils_MultiProc_numProcessors__C
86d8a23c   ti_sdo_utils_MultiProc_numProcsInCluster__C
86d89be8   ti_sdo_utils_MultiProc_procIdList__A
86d89eb0   ti_sdo_utils_MultiProc_procIdList__C
86d6fc5c   ti_sdo_utils_NameServerRemoteNull_Module__root__V
86d89eb4   ti_sdo_utils_NameServer_A_invArgument__C
86d89eb8   ti_sdo_utils_NameServer_A_invalidLen__C
86d89ebc   ti_sdo_utils_NameServer_E_entryExists__C
86d89ec0   ti_sdo_utils_NameServer_E_maxReached__C
86d89ec4   ti_sdo_utils_NameServer_Instance_State_freeList__O
86d89ec8   ti_sdo_utils_NameServer_Instance_State_nameList__O
86cc05f0   ti_sdo_utils_NameServer_Module_State_0_nsRemoteHandle__A
86d89ecc   ti_sdo_utils_NameServer_Module__diagsEnabled__C
86d89ed0   ti_sdo_utils_NameServer_Module__diagsIncluded__C
86d89ed4   ti_sdo_utils_NameServer_Module__diagsMask__C
86d8a240   ti_sdo_utils_NameServer_Module__id__C
86d6fc4c   ti_sdo_utils_NameServer_Module__root__V
86d214e0   ti_sdo_utils_NameServer_Module__startupDone__F
86d22ee0   ti_sdo_utils_NameServer_Module__startupDone__S
86d6fc54   ti_sdo_utils_NameServer_Module__state__V
86d22f00   ti_sdo_utils_NameServer_Module_startup__E
86d15160   ti_sdo_utils_NameServer_Module_startup__F
86d89ed8   ti_sdo_utils_NameServer_Object__count__C
86d22f20   ti_sdo_utils_NameServer_Object__first__S
86d21520   ti_sdo_utils_NameServer_Object__get__S
86d22f40   ti_sdo_utils_NameServer_Object__next__S
86d77480   ti_sdo_utils_NameServer_Object__table__V
86d22f60   ti_sdo_utils_NameServer_SetupProxy_attach__E
86d22f80   ti_sdo_utils_NameServer_SetupProxy_sharedMemReq__E
86d16260   ti_sdo_utils_NameServer_isRegistered__E
86d163c0   ti_sdo_utils_NameServer_registerRemoteDriver__E
86d8a244   ti_sdo_utils_NameServer_singleProcessor__C
86d16520   ti_sdo_utils_NameServer_unregisterRemoteDriver__E
86cdc960   ti_srv_control_dynnamic
86cdc8a8   ti_srv_control_static
86cdb120   ti_srv_control_wrap
86cdb760   ti_srv_create
86cdb16c   ti_srv_process_post
86d89edc   ti_sysbios_BIOS_Module__diagsEnabled__C
86d89ee0   ti_sysbios_BIOS_Module__diagsIncluded__C
86d89ee4   ti_sysbios_BIOS_Module__diagsMask__C
86d8a248   ti_sysbios_BIOS_Module__id__C
86d6fc64   ti_sysbios_BIOS_Module__state__V
86d22fa0   ti_sysbios_BIOS_RtsGateProxy_enter__E
86d22fc0   ti_sysbios_BIOS_RtsGateProxy_leave__E
86d1c5a0   ti_sysbios_BIOS_errorRaiseHook__I
86d1e640   ti_sysbios_BIOS_exitFunc__I
86d22fe0   ti_sysbios_BIOS_getCpuFreq__E
86d23000   ti_sysbios_BIOS_getThreadType__E
86d89ee8   ti_sysbios_BIOS_installedErrorHook__C
86d20000   ti_sysbios_BIOS_registerRTSLock__I
86d23020   ti_sysbios_BIOS_setThreadType__E
86d21560   ti_sysbios_BIOS_startFunc__I
86d23040   ti_sysbios_BIOS_start__E
86d23060   ti_sysbios_family_c62_TaskSupport_Module__startupDone__S
86d21220   ti_sysbios_family_c62_TaskSupport_buildTaskStack
86d23080   ti_sysbios_family_c62_TaskSupport_getStackAlignment__E
86d22020   ti_sysbios_family_c62_TaskSupport_glue
86d89eec   ti_sysbios_family_c62_TaskSupport_stackAlignment__C
86d1e6c0   ti_sysbios_family_c62_TaskSupport_start__E
86d1e140   ti_sysbios_family_c62_TaskSupport_swap__E
86d89ef0   ti_sysbios_family_c64p_Cache_EMIFA_BASE__C
86d89ef4   ti_sysbios_family_c64p_Cache_EMIFA_CFG__C
86d89ef8   ti_sysbios_family_c64p_Cache_EMIFA_LENGTH__C
86d89efc   ti_sysbios_family_c64p_Cache_EMIFB_BASE__C
86d89f00   ti_sysbios_family_c64p_Cache_EMIFB_CFG__C
86d89f04   ti_sysbios_family_c64p_Cache_EMIFB_LENGTH__C
86d89f08   ti_sysbios_family_c64p_Cache_EMIFC_BASE__C
86d89f0c   ti_sysbios_family_c64p_Cache_EMIFC_CFG__C
86d89f10   ti_sysbios_family_c64p_Cache_EMIFC_LENGTH__C
86d89f14   ti_sysbios_family_c64p_Cache_MAR0_31__C
86d89f18   ti_sysbios_family_c64p_Cache_MAR128_159__C
86d89f1c   ti_sysbios_family_c64p_Cache_MAR160_191__C
86d89f20   ti_sysbios_family_c64p_Cache_MAR192_223__C
86d89f24   ti_sysbios_family_c64p_Cache_MAR224_255__C
86d89f28   ti_sysbios_family_c64p_Cache_MAR32_63__C
86d89f2c   ti_sysbios_family_c64p_Cache_MAR64_95__C
86d89f30   ti_sysbios_family_c64p_Cache_MAR96_127__C
86d6fc84   ti_sysbios_family_c64p_Cache_Module__state__V
86d230a0   ti_sysbios_family_c64p_Cache_Module_startup__E
86d0a620   ti_sysbios_family_c64p_Cache_Module_startup__F
86d89bcc   ti_sysbios_family_c64p_Cache_initSize__C
86d1e740   ti_sysbios_family_c64p_Cache_invL1pAll__E
86d10040   ti_sysbios_family_c64p_Cache_inv__E
86d20060   ti_sysbios_family_c64p_Cache_setMar__E
86d10240   ti_sysbios_family_c64p_Cache_wbInv__E
86d89ba0   ti_sysbios_family_c64p_EventCombiner_EVTMASK__C
86d89f34   ti_sysbios_family_c64p_EventCombiner_E_unpluggedEvent__C
86d8a24c   ti_sysbios_family_c64p_EventCombiner_Module__id__C
86d6fc88   ti_sysbios_family_c64p_EventCombiner_Module__state__V
86d230c0   ti_sysbios_family_c64p_EventCombiner_Module_startup__E
86d200c0   ti_sysbios_family_c64p_EventCombiner_Module_startup__F
86d230e0   ti_sysbios_family_c64p_EventCombiner_disableEvent__E
86d215a0   ti_sysbios_family_c64p_EventCombiner_disableEvent__F
86d23100   ti_sysbios_family_c64p_EventCombiner_dispatchPlug__E
86d20120   ti_sysbios_family_c64p_EventCombiner_dispatchPlug__F
86d23120   ti_sysbios_family_c64p_EventCombiner_dispatch__E
86d1a020   ti_sysbios_family_c64p_EventCombiner_dispatch__F
86d23140   ti_sysbios_family_c64p_EventCombiner_enableEvent__E
86d215e0   ti_sysbios_family_c64p_EventCombiner_enableEvent__F
86d23160   ti_sysbios_family_c64p_EventCombiner_unused__E
86d21620   ti_sysbios_family_c64p_EventCombiner_unused__F
86d89f38   ti_sysbios_family_c64p_Exception_E_exceptionMin__C
86d8a250   ti_sysbios_family_c64p_Exception_Module__id__C
86d70088   ti_sysbios_family_c64p_Exception_Module__state__V
86d23180   ti_sysbios_family_c64p_Exception_Module_startup__E
86d20180   ti_sysbios_family_c64p_Exception_Module_startup__F
86d14860   ti_sysbios_family_c64p_Exception_dispatch__E
86d89f3c   ti_sysbios_family_c64p_Exception_exceptionHook__C
86d89f40   ti_sysbios_family_c64p_Exception_externalHook__C
86cf31e0   ti_sysbios_family_c64p_Exception_handler__I
86d0dac0   ti_sysbios_family_c64p_Exception_internalHandler__I
86d89f44   ti_sysbios_family_c64p_Exception_internalHook__C
86d89f48   ti_sysbios_family_c64p_Exception_nmiHook__C
86d8a400   ti_sysbios_family_c64p_Hwi0
86d89f4c   ti_sysbios_family_c64p_Hwi_E_alreadyDefined__C
86d89f50   ti_sysbios_family_c64p_Hwi_E_handleNotFound__C
86cc0600   ti_sysbios_family_c64p_Hwi_Instance_State_0_hookEnv__A
86cc0608   ti_sysbios_family_c64p_Hwi_Instance_State_1_hookEnv__A
86cc0610   ti_sysbios_family_c64p_Hwi_Instance_State_2_hookEnv__A
86cc0618   ti_sysbios_family_c64p_Hwi_Instance_State_3_hookEnv__A
86cc0620   ti_sysbios_family_c64p_Hwi_Instance_State_4_hookEnv__A
86d13c20   ti_sysbios_family_c64p_Hwi_Instance_finalize__F
86d111c0   ti_sysbios_family_c64p_Hwi_Instance_init__F
86d89f54   ti_sysbios_family_c64p_Hwi_LD_end__C
86d89f58   ti_sysbios_family_c64p_Hwi_LM_begin__C
86d89f5c   ti_sysbios_family_c64p_Hwi_Module__diagsEnabled__C
86d89f60   ti_sysbios_family_c64p_Hwi_Module__diagsIncluded__C
86d89f64   ti_sysbios_family_c64p_Hwi_Module__diagsMask__C
86d8a254   ti_sysbios_family_c64p_Hwi_Module__id__C
86d8a258   ti_sysbios_family_c64p_Hwi_Module__loggerDefined__C
86d89f68   ti_sysbios_family_c64p_Hwi_Module__loggerFxn1__C
86d89f6c   ti_sysbios_family_c64p_Hwi_Module__loggerFxn8__C
86d89f70   ti_sysbios_family_c64p_Hwi_Module__loggerObj__C
86d700b4   ti_sysbios_family_c64p_Hwi_Module__root__V
86d21660   ti_sysbios_family_c64p_Hwi_Module__startupDone__F
86d231a0   ti_sysbios_family_c64p_Hwi_Module__startupDone__S
86d700bc   ti_sysbios_family_c64p_Hwi_Module__state__V
86d231c0   ti_sysbios_family_c64p_Hwi_Module_startup__E
86d0a8a0   ti_sysbios_family_c64p_Hwi_Module_startup__F
86d897d4   ti_sysbios_family_c64p_Hwi_Object__DESC__C
86d89140   ti_sysbios_family_c64p_Hwi_Object__PARAMS__C
86d18a60   ti_sysbios_family_c64p_Hwi_Object__create__S
86d201e0   ti_sysbios_family_c64p_Hwi_Object__delete__S
86d89f74   ti_sysbios_family_c64p_Hwi_Object__heap__C
86d77a28   ti_sysbios_family_c64p_Hwi_Object__table__V
86d231e0   ti_sysbios_family_c64p_Hwi_Params__init__S
86d23200   ti_sysbios_family_c64p_Hwi_clearInterrupt__E
86d216a0   ti_sysbios_family_c64p_Hwi_disableInterrupt__E
86d0f840   ti_sysbios_family_c64p_Hwi_dispatchAlways
86d01580   ti_sysbios_family_c64p_Hwi_dispatchC__I
86d216e0   ti_sysbios_family_c64p_Hwi_enableInterrupt__E
86d23220   ti_sysbios_family_c64p_Hwi_getHandle__E
86d89b60   ti_sysbios_family_c64p_Hwi_hooks__A
86d89bf0   ti_sysbios_family_c64p_Hwi_hooks__C
86d8a400   ti_sysbios_family_c64p_Hwi_int0
86d8a420   ti_sysbios_family_c64p_Hwi_int1
86d8a540   ti_sysbios_family_c64p_Hwi_int10
86d8a560   ti_sysbios_family_c64p_Hwi_int11
86d8a580   ti_sysbios_family_c64p_Hwi_int12
86d8a5a0   ti_sysbios_family_c64p_Hwi_int13
86d8a5c0   ti_sysbios_family_c64p_Hwi_int14
86d8a5e0   ti_sysbios_family_c64p_Hwi_int15
86d8a440   ti_sysbios_family_c64p_Hwi_int2
86d8a460   ti_sysbios_family_c64p_Hwi_int3
86d8a480   ti_sysbios_family_c64p_Hwi_int4
86d8a4a0   ti_sysbios_family_c64p_Hwi_int5
86d8a4c0   ti_sysbios_family_c64p_Hwi_int6
86d8a4e0   ti_sysbios_family_c64p_Hwi_int7
86d8a500   ti_sysbios_family_c64p_Hwi_int8
86d8a520   ti_sysbios_family_c64p_Hwi_int9
86d1d2a0   ti_sysbios_family_c64p_Hwi_plug__E
86d0ca80   ti_sysbios_family_c64p_Hwi_reconfig__E
86d23240   ti_sysbios_family_c64p_Hwi_startup__E
86d23260   ti_sysbios_family_c64p_Hwi_switchFromBootStack__E
86d23280   ti_sysbios_family_c64p_Hwi_unPluggedInterrupt__I
86d232a0   ti_sysbios_family_c64p_TimestampProvider_Module_startup__E
86d232c0   ti_sysbios_family_c64p_TimestampProvider_Module_startup__F
86d232e0   ti_sysbios_family_c64p_TimestampProvider_get32__E
86d23300   ti_sysbios_family_c64p_TimestampProvider_getFreq__E
86d21720   ti_sysbios_family_c64p_ti81xx_TimerSupport_Module__startupDone__F
86d23320   ti_sysbios_family_c64p_ti81xx_TimerSupport_Module__startupDone__S
86d23340   ti_sysbios_family_c64p_ti81xx_TimerSupport_Module_startup__E
86d23360   ti_sysbios_family_c64p_ti81xx_TimerSupport_Module_startup__F
86d23380   ti_sysbios_family_c64p_ti81xx_TimerSupport_enable__E
86d21260   ti_sysbios_family_xxx_Hwi_switchToIsrStack
86d22040   ti_sysbios_family_xxx_Hwi_switchToTaskStack
86d20240   ti_sysbios_gates_GateAll_Handle__label__S
86d233a0   ti_sysbios_gates_GateAll_Instance_init__F
86d8941c   ti_sysbios_gates_GateAll_Module__FXNS__C
86d70124   ti_sysbios_gates_GateAll_Module__root__V
86d897f4   ti_sysbios_gates_GateAll_Object__DESC__C
86d89a58   ti_sysbios_gates_GateAll_Object__PARAMS__C
86d1e7c0   ti_sysbios_gates_GateAll_Object__create__S
86d202a0   ti_sysbios_gates_GateAll_Object__delete__S
86d77fc0   ti_sysbios_gates_GateAll_Object__table__V
86d20300   ti_sysbios_gates_GateAll_enter__E
86d1c660   ti_sysbios_gates_GateAll_leave__E
86d233c0   ti_sysbios_gates_GateAll_query__E
86d233e0   ti_sysbios_gates_GateAll_query__F
86d20360   ti_sysbios_gates_GateHwi_Handle__label__S
86d23400   ti_sysbios_gates_GateHwi_Instance_init__F
86d89440   ti_sysbios_gates_GateHwi_Module__FXNS__C
86d7012c   ti_sysbios_gates_GateHwi_Module__root__V
86d89814   ti_sysbios_gates_GateHwi_Object__DESC__C
86d89a70   ti_sysbios_gates_GateHwi_Object__PARAMS__C
86d1e840   ti_sysbios_gates_GateHwi_Object__create__S
86d203c0   ti_sysbios_gates_GateHwi_Object__delete__S
86d78060   ti_sysbios_gates_GateHwi_Object__table__V
86d23420   ti_sysbios_gates_GateHwi_enter__E
86d23440   ti_sysbios_gates_GateHwi_leave__E
86d23460   ti_sysbios_gates_GateHwi_query__E
86d23480   ti_sysbios_gates_GateHwi_query__F
86d89f78   ti_sysbios_gates_GateMutexPri_A_badContext__C
86d20420   ti_sysbios_gates_GateMutexPri_Handle__label__S
86d89f7c   ti_sysbios_gates_GateMutexPri_Instance_State_pendQ__O
86d234a0   ti_sysbios_gates_GateMutexPri_Instance_finalize__F
86d21760   ti_sysbios_gates_GateMutexPri_Instance_init__F
86d89464   ti_sysbios_gates_GateMutexPri_Module__FXNS__C
86d89f80   ti_sysbios_gates_GateMutexPri_Module__diagsEnabled__C
86d89f84   ti_sysbios_gates_GateMutexPri_Module__diagsIncluded__C
86d89f88   ti_sysbios_gates_GateMutexPri_Module__diagsMask__C
86d8a25c   ti_sysbios_gates_GateMutexPri_Module__id__C
86d7013c   ti_sysbios_gates_GateMutexPri_Module__root__V
86d89834   ti_sysbios_gates_GateMutexPri_Object__DESC__C
86d89a88   ti_sysbios_gates_GateMutexPri_Object__PARAMS__C
86d1e8c0   ti_sysbios_gates_GateMutexPri_Object__create__S
86d20480   ti_sysbios_gates_GateMutexPri_Object__delete__S
86d217a0   ti_sysbios_gates_GateMutexPri_Object__destruct__S
86d77f50   ti_sysbios_gates_GateMutexPri_Object__table__V
86d06e60   ti_sysbios_gates_GateMutexPri_enter__E
86d1a120   ti_sysbios_gates_GateMutexPri_leave__E
86d234c0   ti_sysbios_gates_GateMutexPri_query__E
86d234e0   ti_sysbios_gates_GateMutexPri_query__F
86d89f8c   ti_sysbios_gates_GateMutex_A_badContext__C
86d204e0   ti_sysbios_gates_GateMutex_Handle__label__S
86d89f90   ti_sysbios_gates_GateMutex_Instance_State_sem__O
86d23500   ti_sysbios_gates_GateMutex_Instance_finalize__F
86d20540   ti_sysbios_gates_GateMutex_Instance_init__F
86d89488   ti_sysbios_gates_GateMutex_Module__FXNS__C
86d89f94   ti_sysbios_gates_GateMutex_Module__diagsEnabled__C
86d89f98   ti_sysbios_gates_GateMutex_Module__diagsIncluded__C
86d89f9c   ti_sysbios_gates_GateMutex_Module__diagsMask__C
86d8a260   ti_sysbios_gates_GateMutex_Module__id__C
86d70134   ti_sysbios_gates_GateMutex_Module__root__V
86d89854   ti_sysbios_gates_GateMutex_Object__DESC__C
86d89aa0   ti_sysbios_gates_GateMutex_Object__PARAMS__C
86d1e940   ti_sysbios_gates_GateMutex_Object__create__S
86d205a0   ti_sysbios_gates_GateMutex_Object__delete__S
86d77cd0   ti_sysbios_gates_GateMutex_Object__table__V
86d10440   ti_sysbios_gates_GateMutex_enter__E
86d217e0   ti_sysbios_gates_GateMutex_leave__E
86d23520   ti_sysbios_gates_GateMutex_query__E
86d23540   ti_sysbios_gates_GateMutex_query__F
86d89fa0   ti_sysbios_gates_GateSwi_A_badContext__C
86d20600   ti_sysbios_gates_GateSwi_Handle__label__S
86d23560   ti_sysbios_gates_GateSwi_Instance_init__F
86d894ac   ti_sysbios_gates_GateSwi_Module__FXNS__C
86d89fa4   ti_sysbios_gates_GateSwi_Module__diagsEnabled__C
86d89fa8   ti_sysbios_gates_GateSwi_Module__diagsIncluded__C
86d89fac   ti_sysbios_gates_GateSwi_Module__diagsMask__C
86d8a264   ti_sysbios_gates_GateSwi_Module__id__C
86d70144   ti_sysbios_gates_GateSwi_Module__root__V
86d89874   ti_sysbios_gates_GateSwi_Object__DESC__C
86d89ab8   ti_sysbios_gates_GateSwi_Object__PARAMS__C
86d1e9c0   ti_sysbios_gates_GateSwi_Object__create__S
86d20660   ti_sysbios_gates_GateSwi_Object__delete__S
86d77fe0   ti_sysbios_gates_GateSwi_Object__table__V
86d17480   ti_sysbios_gates_GateSwi_enter__E
86d1ea40   ti_sysbios_gates_GateSwi_leave__E
86d23580   ti_sysbios_gates_GateSwi_query__E
86d235a0   ti_sysbios_gates_GateSwi_query__F
86d7014c   ti_sysbios_gates_GateTask_Module__root__V
86d235c0   ti_sysbios_hal_Cache_CacheProxy_inv__E
86d235e0   ti_sysbios_hal_Cache_CacheProxy_wbInv__E
86d23600   ti_sysbios_hal_Cache_inv__E
86d23620   ti_sysbios_hal_Cache_wbInv__E
86d23640   ti_sysbios_hal_Hwi_HwiProxy_Module__startupDone__S
86d23660   ti_sysbios_hal_Hwi_HwiProxy_clearInterrupt__E
86d23680   ti_sysbios_hal_Hwi_HwiProxy_disableInterrupt__E
86d236a0   ti_sysbios_hal_Hwi_HwiProxy_enableInterrupt__E
86d236c0   ti_sysbios_hal_Hwi_HwiProxy_startup__E
86d236e0   ti_sysbios_hal_Hwi_HwiProxy_switchFromBootStack__E
86d70154   ti_sysbios_hal_Hwi_Module__root__V
86d23700   ti_sysbios_hal_Hwi_Module_startup__E
86d23720   ti_sysbios_hal_Hwi_Module_startup__F
86d78000   ti_sysbios_hal_Hwi_Object__table__V
86d23740   ti_sysbios_hal_Hwi_startup__E
86d7015c   ti_sysbios_hal_Timer_Module__root__V
86d21820   ti_sysbios_hal_Timer_Module__startupDone__F
86d23760   ti_sysbios_hal_Timer_Module__startupDone__S
86d23780   ti_sysbios_hal_Timer_Module_startup__E
86d237a0   ti_sysbios_hal_Timer_Module_startup__F
86d78008   ti_sysbios_hal_Timer_Object__table__V
86d237c0   ti_sysbios_hal_Timer_TimerProxy_Module__startupDone__S
86d237e0   ti_sysbios_hal_Timer_TimerProxy_getPeriod__E
86d23800   ti_sysbios_hal_Timer_TimerProxy_startup__E
86d23820   ti_sysbios_hal_Timer_startup__E
86d89fb0   ti_sysbios_heaps_HeapMem_A_align__C
86d89fb4   ti_sysbios_heaps_HeapMem_A_heapSize__C
86d89fb8   ti_sysbios_heaps_HeapMem_A_invalidFree__C
86d89fbc   ti_sysbios_heaps_HeapMem_A_zeroBlock__C
86d89fc0   ti_sysbios_heaps_HeapMem_E_memory__C
86d206c0   ti_sysbios_heaps_HeapMem_Handle__label__S
87000000   ti_sysbios_heaps_HeapMem_Instance_State_0_buf__A
86d07140   ti_sysbios_heaps_HeapMem_Instance_init__F
86d23840   ti_sysbios_heaps_HeapMem_Module_GateProxy_enter__E
86d23860   ti_sysbios_heaps_HeapMem_Module_GateProxy_leave__E
86d23880   ti_sysbios_heaps_HeapMem_Module_GateProxy_query__E
86d89314   ti_sysbios_heaps_HeapMem_Module__FXNS__C
86d89fc4   ti_sysbios_heaps_HeapMem_Module__diagsEnabled__C
86d89fc8   ti_sysbios_heaps_HeapMem_Module__diagsIncluded__C
86d89fcc   ti_sysbios_heaps_HeapMem_Module__diagsMask__C
86d89fd0   ti_sysbios_heaps_HeapMem_Module__gateObj__C
86d8a268   ti_sysbios_heaps_HeapMem_Module__id__C
86d70164   ti_sysbios_heaps_HeapMem_Module__root__V
86d89894   ti_sysbios_heaps_HeapMem_Object__DESC__C
86d894d0   ti_sysbios_heaps_HeapMem_Object__PARAMS__C
86d89fd4   ti_sysbios_heaps_HeapMem_Object__count__C
86d1eac0   ti_sysbios_heaps_HeapMem_Object__create__S
86d20720   ti_sysbios_heaps_HeapMem_Object__delete__S
86d21860   ti_sysbios_heaps_HeapMem_Object__get__S
86d77f68   ti_sysbios_heaps_HeapMem_Object__table__V
86cf5520   ti_sysbios_heaps_HeapMem_alloc__E
86cf67a0   ti_sysbios_heaps_HeapMem_free__E
86d1c720   ti_sysbios_heaps_HeapMem_getStats__E
86d1d8e0   ti_sysbios_heaps_HeapMem_init__I
86d238a0   ti_sysbios_heaps_HeapMem_isBlocking__E
86d89fd8   ti_sysbios_heaps_HeapMem_reqAlign__C
86d89fdc   ti_sysbios_knl_Clock_A_badThreadType__C
86d175c0   ti_sysbios_knl_Clock_Instance_finalize__F
86d04100   ti_sysbios_knl_Clock_Instance_init__F
86d89fe0   ti_sysbios_knl_Clock_LM_begin__C
86d89fe4   ti_sysbios_knl_Clock_LM_tick__C
86d89fe8   ti_sysbios_knl_Clock_LW_delayed__C
86d89fec   ti_sysbios_knl_Clock_Module_State_clockQ__O
86d89ff0   ti_sysbios_knl_Clock_Module__diagsEnabled__C
86d89ff4   ti_sysbios_knl_Clock_Module__diagsIncluded__C
86d89ff8   ti_sysbios_knl_Clock_Module__diagsMask__C
86d8a26c   ti_sysbios_knl_Clock_Module__id__C
86d8a270   ti_sysbios_knl_Clock_Module__loggerDefined__C
86d89ffc   ti_sysbios_knl_Clock_Module__loggerFxn1__C
86d8a000   ti_sysbios_knl_Clock_Module__loggerFxn2__C
86d8a004   ti_sysbios_knl_Clock_Module__loggerObj__C
86d7016c   ti_sysbios_knl_Clock_Module__root__V
86d70174   ti_sysbios_knl_Clock_Module__state__V
86d238c0   ti_sysbios_knl_Clock_Module_startup__E
86d20780   ti_sysbios_knl_Clock_Module_startup__F
86d898b4   ti_sysbios_knl_Clock_Object__DESC__C
86d894f4   ti_sysbios_knl_Clock_Object__PARAMS__C
86d1d980   ti_sysbios_knl_Clock_Object__create__S
86d218a0   ti_sysbios_knl_Clock_Object__destruct__S
86d238e0   ti_sysbios_knl_Clock_Params__init__S
86d1eb40   ti_sysbios_knl_Clock_doTick__I
86d23900   ti_sysbios_knl_Clock_getTicks__E
86d1c7e0   ti_sysbios_knl_Clock_logTick__E
86d8a008   ti_sysbios_knl_Clock_tickPeriod__C
86d09460   ti_sysbios_knl_Clock_workFunc__E
86d7019c   ti_sysbios_knl_Event_Module__root__V
86d8a010   ti_sysbios_knl_Idle_coreList__A
86d89bf8   ti_sysbios_knl_Idle_coreList__C
86d8a018   ti_sysbios_knl_Idle_funcList__A
86d89c00   ti_sysbios_knl_Idle_funcList__C
86d23920   ti_sysbios_knl_Idle_loop__E
86d1da20   ti_sysbios_knl_Idle_run__E
86d23940   ti_sysbios_knl_Queue_Instance_init__F
86d701a4   ti_sysbios_knl_Queue_Module__root__V
86d898d4   ti_sysbios_knl_Queue_Object__DESC__C
86d89ad0   ti_sysbios_knl_Queue_Object__PARAMS__C
86d1ebc0   ti_sysbios_knl_Queue_Object__create__S
86d23960   ti_sysbios_knl_Queue_Object__destruct__S
86d23980   ti_sysbios_knl_Queue_Object__get__S
86d239a0   ti_sysbios_knl_Queue_empty__E
86d8a00c   ti_sysbios_knl_Semaphore_A_badContext__C
86d8a014   ti_sysbios_knl_Semaphore_A_noEvents__C
86d8a01c   ti_sysbios_knl_Semaphore_A_overflow__C
86d8a020   ti_sysbios_knl_Semaphore_Instance_State_pendQ__O
86d239c0   ti_sysbios_knl_Semaphore_Instance_finalize__F
86d17700   ti_sysbios_knl_Semaphore_Instance_init__F
86d8a024   ti_sysbios_knl_Semaphore_LM_pend__C
86d8a028   ti_sysbios_knl_Semaphore_LM_post__C
86d8a02c   ti_sysbios_knl_Semaphore_Module__diagsEnabled__C
86d8a030   ti_sysbios_knl_Semaphore_Module__diagsIncluded__C
86d8a034   ti_sysbios_knl_Semaphore_Module__diagsMask__C
86d8a274   ti_sysbios_knl_Semaphore_Module__id__C
86d8a278   ti_sysbios_knl_Semaphore_Module__loggerDefined__C
86d8a038   ti_sysbios_knl_Semaphore_Module__loggerFxn2__C
86d8a03c   ti_sysbios_knl_Semaphore_Module__loggerFxn4__C
86d8a040   ti_sysbios_knl_Semaphore_Module__loggerObj__C
86d701ac   ti_sysbios_knl_Semaphore_Module__root__V
86d898f4   ti_sysbios_knl_Semaphore_Object__DESC__C
86d89518   ti_sysbios_knl_Semaphore_Object__PARAMS__C
86d1dac0   ti_sysbios_knl_Semaphore_Object__create__S
86d207e0   ti_sysbios_knl_Semaphore_Object__delete__S
86d218e0   ti_sysbios_knl_Semaphore_Object__destruct__S
86d239e0   ti_sysbios_knl_Semaphore_Params__init__S
86d20840   ti_sysbios_knl_Semaphore_pendTimeout__I
86cfcb40   ti_sysbios_knl_Semaphore_pend__E
86d0dd00   ti_sysbios_knl_Semaphore_post__E
86d8a044   ti_sysbios_knl_Swi_A_badPriority__C
86cc0628   ti_sysbios_knl_Swi_Instance_State_0_hookEnv__A
86d12040   ti_sysbios_knl_Swi_Instance_finalize__F
86d10640   ti_sysbios_knl_Swi_Instance_init__F
86d8a048   ti_sysbios_knl_Swi_LD_end__C
86d8a04c   ti_sysbios_knl_Swi_LM_begin__C
86d8a050   ti_sysbios_knl_Swi_LM_post__C
86d778b0   ti_sysbios_knl_Swi_Module_State_0_readyQ__A
86d8a054   ti_sysbios_knl_Swi_Module__diagsEnabled__C
86d8a058   ti_sysbios_knl_Swi_Module__diagsIncluded__C
86d8a05c   ti_sysbios_knl_Swi_Module__diagsMask__C
86d8a27c   ti_sysbios_knl_Swi_Module__id__C
86d8a280   ti_sysbios_knl_Swi_Module__loggerDefined__C
86d8a060   ti_sysbios_knl_Swi_Module__loggerFxn1__C
86d8a064   ti_sysbios_knl_Swi_Module__loggerFxn4__C
86d8a068   ti_sysbios_knl_Swi_Module__loggerObj__C
86d701b4   ti_sysbios_knl_Swi_Module__root__V
86d701bc   ti_sysbios_knl_Swi_Module__state__V
86d23a00   ti_sysbios_knl_Swi_Module_startup__E
86d0cce0   ti_sysbios_knl_Swi_Module_startup__F
86d89914   ti_sysbios_knl_Swi_Object__DESC__C
86d8933c   ti_sysbios_knl_Swi_Object__PARAMS__C
86d8a06c   ti_sysbios_knl_Swi_Object__count__C
86d18b80   ti_sysbios_knl_Swi_Object__create__S
86d21920   ti_sysbios_knl_Swi_Object__destruct__S
86d21960   ti_sysbios_knl_Swi_Object__get__S
86d8a070   ti_sysbios_knl_Swi_Object__heap__C
86d77d50   ti_sysbios_knl_Swi_Object__table__V
86d23a20   ti_sysbios_knl_Swi_Params__init__S
86d23a40   ti_sysbios_knl_Swi_disable__E
86d89ae8   ti_sysbios_knl_Swi_hooks__A
86d89c08   ti_sysbios_knl_Swi_hooks__C
86d8a074   ti_sysbios_knl_Swi_numConstructedSwis__C
86d1c8a0   ti_sysbios_knl_Swi_postInit__I
86d12200   ti_sysbios_knl_Swi_post__E
86d1a220   ti_sysbios_knl_Swi_restoreHwi__E
86d05a20   ti_sysbios_knl_Swi_run__I
86d152e0   ti_sysbios_knl_Swi_schedule__I
86d1ec40   ti_sysbios_knl_Swi_startup__E
86d8a078   ti_sysbios_knl_Task_A_badPriority__C
86d8a07c   ti_sysbios_knl_Task_A_badTaskState__C
86d8a080   ti_sysbios_knl_Task_A_badThreadType__C
86d8a084   ti_sysbios_knl_Task_A_badTimeout__C
86d8a088   ti_sysbios_knl_Task_A_noPendElem__C
86cc0630   ti_sysbios_knl_Task_Instance_State_0_hookEnv__A
86cac0e8   ti_sysbios_knl_Task_Instance_State_0_stack__A
86cc0638   ti_sysbios_knl_Task_Instance_State_1_hookEnv__A
86cb00e8   ti_sysbios_knl_Task_Instance_State_1_stack__A
86cc0640   ti_sysbios_knl_Task_Instance_State_2_hookEnv__A
86cb40e8   ti_sysbios_knl_Task_Instance_State_2_stack__A
86cfa720   ti_sysbios_knl_Task_Instance_finalize__F
86d02140   ti_sysbios_knl_Task_Instance_init__F
86d8a08c   ti_sysbios_knl_Task_LD_block__C
86d8a090   ti_sysbios_knl_Task_LD_exit__C
86d8a094   ti_sysbios_knl_Task_LD_ready__C
86d8a098   ti_sysbios_knl_Task_LM_setPri__C
86d8a09c   ti_sysbios_knl_Task_LM_sleep__C
86d8a0a0   ti_sysbios_knl_Task_LM_switch__C
86d8a0a4   ti_sysbios_knl_Task_LM_yield__C
86d78068   ti_sysbios_knl_Task_Module_State_0_idleTask__A
86d77930   ti_sysbios_knl_Task_Module_State_0_readyQ__A
86d8a0a8   ti_sysbios_knl_Task_Module_State_inactiveQ__O
86d8a0ac   ti_sysbios_knl_Task_Module__diagsEnabled__C
86d8a0b0   ti_sysbios_knl_Task_Module__diagsIncluded__C
86d8a0b4   ti_sysbios_knl_Task_Module__diagsMask__C
86d8a284   ti_sysbios_knl_Task_Module__id__C
86d8a288   ti_sysbios_knl_Task_Module__loggerDefined__C
86d8a0b8   ti_sysbios_knl_Task_Module__loggerFxn2__C
86d8a0bc   ti_sysbios_knl_Task_Module__loggerFxn4__C
86d8a0c0   ti_sysbios_knl_Task_Module__loggerObj__C
86d701d8   ti_sysbios_knl_Task_Module__root__V
86d701e0   ti_sysbios_knl_Task_Module__state__V
86d23a60   ti_sysbios_knl_Task_Module_startup__E
86cfe6c0   ti_sysbios_knl_Task_Module_startup__F
86d89934   ti_sysbios_knl_Task_Object__DESC__C
86d88fc4   ti_sysbios_knl_Task_Object__PARAMS__C
86d8a0c4   ti_sysbios_knl_Task_Object__count__C
86d18ca0   ti_sysbios_knl_Task_Object__create__S
86d219a0   ti_sysbios_knl_Task_Object__get__S
86d8a0c8   ti_sysbios_knl_Task_Object__heap__C
86d77698   ti_sysbios_knl_Task_Object__table__V
86d23a80   ti_sysbios_knl_Task_Params__init__S
86d23aa0   ti_sysbios_knl_Task_SupportProxy_Module__startupDone__S
86d23ac0   ti_sysbios_knl_Task_SupportProxy_getStackAlignment__E
86d23ae0   ti_sysbios_knl_Task_SupportProxy_start__E
86d23b00   ti_sysbios_knl_Task_SupportProxy_swap__E
86d8a0cc   ti_sysbios_knl_Task_allBlockedFunc__C
86d1c960   ti_sysbios_knl_Task_allBlockedFunction__I
86d17840   ti_sysbios_knl_Task_blockI__E
86d8a0d0   ti_sysbios_knl_Task_defaultStackHeap__C
86d8a0d4   ti_sysbios_knl_Task_defaultStackSize__C
86d23b20   ti_sysbios_knl_Task_disable__E
86d23b40   ti_sysbios_knl_Task_enable__E
86d208a0   ti_sysbios_knl_Task_enter__I
86d0e9e0   ti_sysbios_knl_Task_exit__E
86d23b60   ti_sysbios_knl_Task_getPri__E
86d89b00   ti_sysbios_knl_Task_hooks__A
86d89c10   ti_sysbios_knl_Task_hooks__C
86d8a28c   ti_sysbios_knl_Task_initStackFlag__C
86d8a0d8   ti_sysbios_knl_Task_numConstructedTasks__C
86d113a0   ti_sysbios_knl_Task_postInit__I
86d1ecc0   ti_sysbios_knl_Task_restore__E
86d0ec00   ti_sysbios_knl_Task_schedule__I
86d23b80   ti_sysbios_knl_Task_self__E
86d02500   ti_sysbios_knl_Task_setPri__E
86d219e0   ti_sysbios_knl_Task_sleepTimeout__I
86d07420   ti_sysbios_knl_Task_sleep__E
86d0ee20   ti_sysbios_knl_Task_startCore__E
86d23ba0   ti_sysbios_knl_Task_startup__E
86d13dc0   ti_sysbios_knl_Task_unblockI__E
86d167e0   ti_sysbios_knl_Task_yield__E
86d20900   ti_sysbios_syncs_SyncSem_Handle__label__S
86d21a20   ti_sysbios_syncs_SyncSem_Instance_finalize__F
86d15460   ti_sysbios_syncs_SyncSem_Instance_init__F
86d8953c   ti_sysbios_syncs_SyncSem_Module__FXNS__C
86d8a0dc   ti_sysbios_syncs_SyncSem_Module__diagsEnabled__C
86d8a0e0   ti_sysbios_syncs_SyncSem_Module__diagsIncluded__C
86d8a0e4   ti_sysbios_syncs_SyncSem_Module__diagsMask__C
86d8a290   ti_sysbios_syncs_SyncSem_Module__id__C
86d70228   ti_sysbios_syncs_SyncSem_Module__root__V
86d89954   ti_sysbios_syncs_SyncSem_Object__DESC__C
86d899f0   ti_sysbios_syncs_SyncSem_Object__PARAMS__C
86d1a320   ti_sysbios_syncs_SyncSem_Object__create__S
86d20960   ti_sysbios_syncs_SyncSem_Object__delete__S
86d23bc0   ti_sysbios_syncs_SyncSem_query__E
86d23be0   ti_sysbios_syncs_SyncSem_query__F
86d23c00   ti_sysbios_syncs_SyncSem_signal__E
86d23c20   ti_sysbios_syncs_SyncSem_signal__F
86d23c40   ti_sysbios_syncs_SyncSem_wait__E
86d1db60   ti_sysbios_syncs_SyncSem_wait__F
86d8a0e8   ti_sysbios_timers_dmtimer_Timer_E_cannotSupport__C
86d8a0ec   ti_sysbios_timers_dmtimer_Timer_E_freqMismatch__C
86d77d10   ti_sysbios_timers_dmtimer_Timer_Module_State_0_device__A
86d77f98   ti_sysbios_timers_dmtimer_Timer_Module_State_0_handles__A
86d8a0f0   ti_sysbios_timers_dmtimer_Timer_Module__diagsEnabled__C
86d8a0f4   ti_sysbios_timers_dmtimer_Timer_Module__diagsIncluded__C
86d8a0f8   ti_sysbios_timers_dmtimer_Timer_Module__diagsMask__C
86d8a294   ti_sysbios_timers_dmtimer_Timer_Module__id__C
86d70230   ti_sysbios_timers_dmtimer_Timer_Module__root__V
86d21a60   ti_sysbios_timers_dmtimer_Timer_Module__startupDone__F
86d23c60   ti_sysbios_timers_dmtimer_Timer_Module__startupDone__S
86d70238   ti_sysbios_timers_dmtimer_Timer_Module__state__V
86d23c80   ti_sysbios_timers_dmtimer_Timer_Module_startup__E
86d18dc0   ti_sysbios_timers_dmtimer_Timer_Module_startup__F
86d77b08   ti_sysbios_timers_dmtimer_Timer_Object__table__V
86d23ca0   ti_sysbios_timers_dmtimer_Timer_TimerSupportProxy_Module__startupDone__S
86d23cc0   ti_sysbios_timers_dmtimer_Timer_TimerSupportProxy_enable__E
86d03360   ti_sysbios_timers_dmtimer_Timer_checkFreq__I
86d8a298   ti_sysbios_timers_dmtimer_Timer_checkFrequency__C
86d209c0   ti_sysbios_timers_dmtimer_Timer_getPeriod__E
86d8a0fc   ti_sysbios_timers_dmtimer_Timer_numTimerDevices__C
86d09700   ti_sysbios_timers_dmtimer_Timer_setPeriodMicroSecs__E
86d10840   ti_sysbios_timers_dmtimer_Timer_start__E
86d8a29c   ti_sysbios_timers_dmtimer_Timer_startupNeeded__C
86d0ab20   ti_sysbios_timers_dmtimer_Timer_startup__E
86d20a20   ti_sysbios_timers_dmtimer_Timer_stub__E
86d8a100   ti_sysbios_utils_Load_LS_cpuLoad__C
86d8a104   ti_sysbios_utils_Load_LS_hwiLoad__C
86d8a108   ti_sysbios_utils_Load_LS_swiLoad__C
86d8a10c   ti_sysbios_utils_Load_LS_taskLoad__C
86d78070   ti_sysbios_utils_Load_Module_State_0_runningTask__A
86d78078   ti_sysbios_utils_Load_Module_State_0_taskStartTime__A
86d8a110   ti_sysbios_utils_Load_Module_State_taskList__O
86d8a114   ti_sysbios_utils_Load_Module__diagsEnabled__C
86d8a118   ti_sysbios_utils_Load_Module__diagsIncluded__C
86d8a11c   ti_sysbios_utils_Load_Module__diagsMask__C
86d8a2a0   ti_sysbios_utils_Load_Module__id__C
86d8a2a4   ti_sysbios_utils_Load_Module__loggerDefined__C
86d8a120   ti_sysbios_utils_Load_Module__loggerFxn1__C
86d8a124   ti_sysbios_utils_Load_Module__loggerFxn2__C
86d8a128   ti_sysbios_utils_Load_Module__loggerFxn4__C
86d8a12c   ti_sysbios_utils_Load_Module__loggerObj__C
86d70250   ti_sysbios_utils_Load_Module__state__V
86d8a2a8   ti_sysbios_utils_Load_autoAddTasks__C
86d1b640   ti_sysbios_utils_Load_hwiBeginHook__E
86d8a2ac   ti_sysbios_utils_Load_hwiEnabled__C
86d1ed40   ti_sysbios_utils_Load_hwiEndHook__E
86d11580   ti_sysbios_utils_Load_idleFxn__E
86d01980   ti_sysbios_utils_Load_logLoads__I
86d8a130   ti_sysbios_utils_Load_postUpdate__C
86d1dc00   ti_sysbios_utils_Load_swiBeginHook__E
86d8a2b0   ti_sysbios_utils_Load_swiEnabled__C
86d1edc0   ti_sysbios_utils_Load_swiEndHook__E
86d0cf40   ti_sysbios_utils_Load_taskCreateHook__E
86d11760   ti_sysbios_utils_Load_taskDeleteHook__E
86d8a2b4   ti_sysbios_utils_Load_taskEnabled__C
86d23ce0   ti_sysbios_utils_Load_taskRegHook__E
86d1ca20   ti_sysbios_utils_Load_taskSwitchHook__E
86d8a2b8   ti_sysbios_utils_Load_updateInIdle__C
86cfc180   ti_sysbios_utils_Load_update__E
86d8a134   ti_sysbios_utils_Load_windowInMs__C
86d8a138   ti_sysbios_xdcruntime_GateThreadSupport_Instance_State_gate__O
86d23d00   ti_sysbios_xdcruntime_GateThreadSupport_Instance_finalize__F
86d21aa0   ti_sysbios_xdcruntime_GateThreadSupport_Instance_init__F
86d702cc   ti_sysbios_xdcruntime_GateThreadSupport_Module__root__V
86d89974   ti_sysbios_xdcruntime_GateThreadSupport_Object__DESC__C
86d89b18   ti_sysbios_xdcruntime_GateThreadSupport_Object__PARAMS__C
86d1ee40   ti_sysbios_xdcruntime_GateThreadSupport_Object__create__S
86d20a80   ti_sysbios_xdcruntime_GateThreadSupport_Object__delete__S
86d23d20   ti_sysbios_xdcruntime_GateThreadSupport_enter__E
86d23d40   ti_sysbios_xdcruntime_GateThreadSupport_enter__F
86d23d60   ti_sysbios_xdcruntime_GateThreadSupport_leave__E
86d18ee0   ti_sysbios_xdcruntime_GateThreadSupport_leave__F
86d23d80   ti_sysbios_xdcruntime_GateThreadSupport_query__E
86d23da0   ti_sysbios_xdcruntime_GateThreadSupport_query__F
86d20ae0   ti_syslink_ipc_rtos_Syslink_attach
86cc4990   tpHandle
86d9a2a8   triggerGA
86d1eec0   unlink
86d1cae0   unregisterEdma3Interrupts
86cde894   updateSampleGain
86cde700   updateViewSampleMapForViewKChannelP
86d9a2d0   userInitConfig
86cbc310   userInstInitConfigArray
86d1ef40   vsnprintf
86c00138   win_Height
86c000e8   win_Width
86c00048   win_startX
86c00098   win_startY
86cf25d4   winbond_erase
86cf2550   winbond_read_fast
86d1dca0   write
86d20b40   writemsg
86d8a13c   xdc_runtime_Assert_E_assertFailed__C
86d1dd40   xdc_runtime_Assert_raise__I
86d8a140   xdc_runtime_Core_A_initializedParams__C
86d8a144   xdc_runtime_Core_Module__diagsEnabled__C
86d8a148   xdc_runtime_Core_Module__diagsIncluded__C
86d8a14c   xdc_runtime_Core_Module__diagsMask__C
86d8a2bc   xdc_runtime_Core_Module__id__C
86d1efc0   xdc_runtime_Core_assignLabel__I
86d1f040   xdc_runtime_Core_assignParams__I
86d0ada0   xdc_runtime_Core_createObject__I
86d1a420   xdc_runtime_Core_deleteObject__I
86d8a150   xdc_runtime_Error_E_generic__C
86d8a154   xdc_runtime_Error_E_memory__C
86d8a158   xdc_runtime_Error_Module__diagsEnabled__C
86d8a15c   xdc_runtime_Error_Module__diagsIncluded__C
86d8a160   xdc_runtime_Error_Module__diagsMask__C
86d8a2c0   xdc_runtime_Error_Module__loggerDefined__C
86d8a164   xdc_runtime_Error_Module__loggerFxn8__C
86d8a168   xdc_runtime_Error_Module__loggerObj__C
86d702d4   xdc_runtime_Error_Module__state__V
86d23dc0   xdc_runtime_Error_check__E
86d21b20   xdc_runtime_Error_check__F
86d23de0   xdc_runtime_Error_init__E
86d21b60   xdc_runtime_Error_init__F
86d8a2c4   xdc_runtime_Error_maxDepth__C
86d8a16c   xdc_runtime_Error_policy__C
86d23e00   xdc_runtime_Error_print__E
86d1b720   xdc_runtime_Error_print__F
86d8a170   xdc_runtime_Error_raiseHook__C
86d23e20   xdc_runtime_Error_raiseX__E
86d0b020   xdc_runtime_Error_raiseX__F
86d20ba0   xdc_runtime_GateNull_Handle__label__S
86d89560   xdc_runtime_GateNull_Module__FXNS__C
86d702d8   xdc_runtime_GateNull_Module__root__V
86d89994   xdc_runtime_GateNull_Object__DESC__C
86d89b30   xdc_runtime_GateNull_Object__PARAMS__C
86d20c00   xdc_runtime_GateNull_Object__create__S
86d20c60   xdc_runtime_GateNull_Object__delete__S
86d78080   xdc_runtime_GateNull_Object__table__V
86d23e40   xdc_runtime_GateNull_enter__E
86d23e60   xdc_runtime_GateNull_enter__F
86d23e80   xdc_runtime_GateNull_leave__E
86d23ea0   xdc_runtime_GateNull_leave__F
86d23ec0   xdc_runtime_GateNull_query__E
86d23ee0   xdc_runtime_GateNull_query__F
86d23f00   xdc_runtime_Gate_enterSystem__E
86d23f20   xdc_runtime_Gate_enterSystem__F
86d23f40   xdc_runtime_Gate_leaveSystem__E
86d23f60   xdc_runtime_Gate_leaveSystem__F
86d8a174   xdc_runtime_IGateProvider_Interface__BASE__C
86d8a178   xdc_runtime_IHeap_Interface__BASE__C
86d8a17c   xdc_runtime_IModule_Interface__BASE__C
86d8a180   xdc_runtime_Log_L_error__C
86d23fc0   xdc_runtime_Memory_HeapProxy_alloc__E
86d23fe0   xdc_runtime_Memory_HeapProxy_free__E
86d8a2c8   xdc_runtime_Memory_Module__id__C
86d702e0   xdc_runtime_Memory_Module__state__V
86d24000   xdc_runtime_Memory_alloc__E
86d1b800   xdc_runtime_Memory_alloc__F
86d24020   xdc_runtime_Memory_calloc__E
86d20cc0   xdc_runtime_Memory_calloc__F
86d8a184   xdc_runtime_Memory_defaultHeapInstance__C
86d24040   xdc_runtime_Memory_free__E
86d21ba0   xdc_runtime_Memory_free__F
86d24060   xdc_runtime_Memory_getMaxDefaultTypeAlign__E
86d24080   xdc_runtime_Memory_getMaxDefaultTypeAlign__F
86d240a0   xdc_runtime_Memory_valloc__E
86d20d20   xdc_runtime_Memory_valloc__F
86d702e4   xdc_runtime_Registry_Module__state__V
86d240c0   xdc_runtime_Registry_findById__E
86d21be0   xdc_runtime_Registry_findById__F
86d240e0   xdc_runtime_Startup_Module__startupDone__S
86d702ec   xdc_runtime_Startup_Module__state__V
00000001   xdc_runtime_Startup__EXECFXN__C
00000001   xdc_runtime_Startup__RESETFXN__C
86d8a188   xdc_runtime_Startup_execImpl__C
86d24100   xdc_runtime_Startup_exec__E
86d1a520   xdc_runtime_Startup_exec__F
86d24120   xdc_runtime_Startup_exec__I
86d8a190   xdc_runtime_Startup_firstFxns__A
86d89c18   xdc_runtime_Startup_firstFxns__C
86d8a198   xdc_runtime_Startup_lastFxns__A
86d89c20   xdc_runtime_Startup_lastFxns__C
86d8a18c   xdc_runtime_Startup_maxPasses__C
86d24140   xdc_runtime_Startup_reset__I
86d89588   xdc_runtime_Startup_sfxnRts__A
86d8a194   xdc_runtime_Startup_sfxnRts__C
86d88ec0   xdc_runtime_Startup_sfxnTab__A
86d8a19c   xdc_runtime_Startup_sfxnTab__C
86d0d1a0   xdc_runtime_Startup_startMods__I
86cc0648   xdc_runtime_SysMin_Module_State_0_outbuf__A
86d702f4   xdc_runtime_SysMin_Module__state__V
86d24160   xdc_runtime_SysMin_Module_startup__E
86d20d80   xdc_runtime_SysMin_Module_startup__F
86d24180   xdc_runtime_SysMin_abort__E
86d1dde0   xdc_runtime_SysMin_abort__F
86d8a1a0   xdc_runtime_SysMin_bufSize__C
86d241a0   xdc_runtime_SysMin_exit__E
86d20de0   xdc_runtime_SysMin_exit__F
86d8a2cc   xdc_runtime_SysMin_flushAtExit__C
86d1de80   xdc_runtime_SysMin_flush__F
86d8a1a4   xdc_runtime_SysMin_outputFunc__C
86d1f0c0   xdc_runtime_SysMin_output__I
86d241c0   xdc_runtime_SysMin_putch__E
86d1df20   xdc_runtime_SysMin_putch__F
86d241e0   xdc_runtime_SysMin_ready__E
86d24200   xdc_runtime_SysMin_ready__F
86d24220   xdc_runtime_System_Module_GateProxy_enter__E
86d24240   xdc_runtime_System_Module_GateProxy_leave__E
86d77f30   xdc_runtime_System_Module_State_0_atexitHandlers__A
86d8a1a8   xdc_runtime_System_Module__gateObj__C
86d70300   xdc_runtime_System_Module__state__V
86d24260   xdc_runtime_System_Module_startup__E
86d24280   xdc_runtime_System_Module_startup__F
86d242a0   xdc_runtime_System_SupportProxy_abort__E
86d242c0   xdc_runtime_System_SupportProxy_exit__E
86d242e0   xdc_runtime_System_SupportProxy_putch__E
86d24300   xdc_runtime_System_SupportProxy_ready__E
86d24320   xdc_runtime_System_abort__E
86d21c20   xdc_runtime_System_abort__F
86d21c60   xdc_runtime_System_aprintf__E
86d20e40   xdc_runtime_System_aprintf_va__F
86d24340   xdc_runtime_System_atexit__E
86d1f140   xdc_runtime_System_atexit__F
86cedd20   xdc_runtime_System_doPrint__I
86d24360   xdc_runtime_System_exit__E
86d24380   xdc_runtime_System_exit__F
86d8a1ac   xdc_runtime_System_extendFxn__C
86d1cba0   xdc_runtime_System_formatNum__I
86d243a0   xdc_runtime_System_lastFxn__I
86d8a1b0   xdc_runtime_System_maxAtexitHandlers__C
86d0b2a0   xdc_runtime_System_printfExtend__I
86d21ca0   xdc_runtime_System_printf__E
86d20ea0   xdc_runtime_System_printf_va__F
86d1f1c0   xdc_runtime_System_rtsExit__I
86d21ce0   xdc_runtime_System_sprintf__E
86d243c0   xdc_runtime_System_sprintf_va__F
86d243e0   xdc_runtime_System_vsprintf__E
86d24400   xdc_runtime_System_vsprintf__F
86d7030c   xdc_runtime_Text_Module__state__V
86d8a2d0   xdc_runtime_Text_charCnt__C
86d78088   xdc_runtime_Text_charTab__A
86d8a1b4   xdc_runtime_Text_charTab__C
86d24420   xdc_runtime_Text_cordText__E
86d20f00   xdc_runtime_Text_cordText__F
86d8a2d4   xdc_runtime_Text_isLoaded__C
86d8a1b8   xdc_runtime_Text_nameEmpty__C
86d8a1bc   xdc_runtime_Text_nameStatic__C
86d8a1c0   xdc_runtime_Text_nameUnknown__C
86d88070   xdc_runtime_Text_nodeTab__A
86d8a1c4   xdc_runtime_Text_nodeTab__C
86d1f240   xdc_runtime_Text_printVisFxn__I
86d24440   xdc_runtime_Text_putLab__E
86d19000   xdc_runtime_Text_putLab__F
86d1a620   xdc_runtime_Text_putMod__F
86d24460   xdc_runtime_Text_putSite__E
86d155e0   xdc_runtime_Text_putSite__F
86d8a2d8   xdc_runtime_Text_registryModsLastId__C
86d24480   xdc_runtime_Text_ropeText__E
86d21d20   xdc_runtime_Text_ropeText__F
86d8a2dc   xdc_runtime_Text_unnamedModsLastId__C
86d1a720   xdc_runtime_Text_visitRope2__I
86d8a1c8   xdc_runtime_Text_visitRopeFxn__C
86d244a0   xdc_runtime_Text_visitRope__I
86d1f2c0   xdc_runtime_Text_xprintf__I
86d244c0   xdc_runtime_Timestamp_SupportProxy_get32__E
86d244e0   xdc_runtime_Timestamp_SupportProxy_getFreq__E
86d24500   xdc_runtime_Timestamp_get32__E
86d24520   xdc_runtime_Timestamp_get32__F
86d24540   xdc_runtime_Timestamp_getFreq__E
86d24560   xdc_runtime_Timestamp_getFreq__F
86d20f60   xdc_runtime_knl_GateThread_Handle__label__S
86d21d60   xdc_runtime_knl_GateThread_Instance_finalize__F
86d21da0   xdc_runtime_knl_GateThread_Instance_init__F
86d895ac   xdc_runtime_knl_GateThread_Module__FXNS__C
86d70314   xdc_runtime_knl_GateThread_Module__root__V
86d24580   xdc_runtime_knl_GateThread_Module__startupDone__S
86d899b4   xdc_runtime_knl_GateThread_Object__DESC__C
86d89b48   xdc_runtime_knl_GateThread_Object__PARAMS__C
86d1a820   xdc_runtime_knl_GateThread_Object__create__S
86d20fc0   xdc_runtime_knl_GateThread_Object__delete__S
86d245a0   xdc_runtime_knl_GateThread_Proxy_Object__create__S
86d245c0   xdc_runtime_knl_GateThread_Proxy_Object__delete__S
86d245e0   xdc_runtime_knl_GateThread_Proxy_enter__E
86d24600   xdc_runtime_knl_GateThread_Proxy_leave__E
86d24620   xdc_runtime_knl_GateThread_Proxy_query__E
86d24640   xdc_runtime_knl_GateThread_enter__E
86d24660   xdc_runtime_knl_GateThread_enter__F
86d24680   xdc_runtime_knl_GateThread_leave__E
86d246a0   xdc_runtime_knl_GateThread_leave__F
86d246c0   xdc_runtime_knl_GateThread_query__E
86d246e0   xdc_runtime_knl_GateThread_query__F
86d8a1cc   xdc_runtime_knl_ISync_Interface__BASE__C
86d5eee8   yuv_back_yuv
86d9a174   yuv_back_yuv_len
86d6cf68   yuv_bar_h_yuv
86d9a104   yuv_bar_h_yuv_len
86d6d948   yuv_bar_yuv
86d9a100   yuv_bar_yuv_len
86d24700   yuv_car_yuv
86d9a108   yuv_car_yuv_len
86d45bc8   yuv_colab_wp_h_yuv
86d9a118   yuv_colab_wp_h_yuv_len
86d48a60   yuv_colab_wp_yuv
86d9a114   yuv_colab_wp_yuv_len
86d60de8   yuv_front_yuv
86d9a170   yuv_front_yuv_len
86d866b8   yuv_g0_yuv
86d9a194   yuv_g0_yuv_len
86d86aa0   yuv_g1_yuv
86d9a198   yuv_g1_yuv_len
86d86e88   yuv_g2_yuv
86d9a19c   yuv_g2_yuv_len
86d721b8   yuv_g3_yuv
86d9a1a0   yuv_g3_yuv_len
86d725a0   yuv_g4_yuv
86d9a1a4   yuv_g4_yuv_len
86d72988   yuv_g5_yuv
86d9a1a8   yuv_g5_yuv_len
86d72d70   yuv_g6_yuv
86d9a1ac   yuv_g6_yuv_len
86d73158   yuv_g7_yuv
86d9a1b0   yuv_g7_yuv_len
86d73540   yuv_g8_yuv
86d9a1b4   yuv_g8_yuv_len
86d73928   yuv_g9_yuv
86d9a1b8   yuv_g9_yuv_len
86d76d78   yuv_gdot_yuv
86d9a1bc   yuv_gdot_yuv_len
86d62ce8   yuv_left_yuv
86d9a168   yuv_left_yuv_len
86d854b0   yuv_m1_yuv
86d9a18c   yuv_m1_yuv_len
86d85bb8   yuv_m2_yuv
86d9a190   yuv_m2_yuv_len
86d4e328   yuv_menu_adv_h_yuv
86d9a120   yuv_menu_adv_h_yuv_len
86d504a0   yuv_menu_adv_yuv
86d9a11c   yuv_menu_adv_yuv_len
86d52618   yuv_menu_cola_h_yuv
86d9a128   yuv_menu_cola_h_yuv_len
86d54790   yuv_menu_cola_yuv
86d9a124   yuv_menu_cola_yuv_len
86d7d538   yuv_menu_colab_clb_h_yuv
86d9a110   yuv_menu_colab_clb_h_yuv_len
86d7f6b0   yuv_menu_colab_clb_yuv
86d9a10c   yuv_menu_colab_clb_yuv_len
86d56908   yuv_menu_param_h_yuv
86d9a130   yuv_menu_param_h_yuv_len
86d58a80   yuv_menu_param_yuv
86d9a12c   yuv_menu_param_yuv_len
86d81828   yuv_menu_photo_h_yuv
86d9a140   yuv_menu_photo_h_yuv_len
86d82d28   yuv_menu_photo_yuv
86d9a13c   yuv_menu_photo_yuv_len
86d5abf8   yuv_menu_upd_h_yuv
86d9a138   yuv_menu_upd_h_yuv_len
86d5cd70   yuv_menu_upd_yuv
86d9a134   yuv_menu_upd_yuv_len
86d7ab08   yuv_notice1_yuv
86d9a17c   yuv_notice1_yuv_len
86d4b8f8   yuv_notice2_yuv
86d9a180   yuv_notice2_yuv_len
86d9a184   yuv_num1_yuv_len
86d9a188   yuv_num2_yuv_len
86d73d10   yuv_red0_yuv
86d9a1c0   yuv_red0_yuv_len
86d740f8   yuv_red1_yuv
86d9a1c4   yuv_red1_yuv_len
86d744e0   yuv_red2_yuv
86d9a1c8   yuv_red2_yuv_len
86d748c8   yuv_red3_yuv
86d9a1cc   yuv_red3_yuv_len
86d74cb0   yuv_red4_yuv
86d9a1d0   yuv_red4_yuv_len
86d75098   yuv_red5_yuv
86d9a1d4   yuv_red5_yuv_len
86d75480   yuv_red6_yuv
86d9a1d8   yuv_red6_yuv_len
86d75868   yuv_red7_yuv
86d9a1dc   yuv_red7_yuv_len
86d75c50   yuv_red8_yuv
86d9a1e0   yuv_red8_yuv_len
86d76038   yuv_red9_yuv
86d9a1e4   yuv_red9_yuv_len
86d76f70   yuv_reddot_yuv
86d9a1e8   yuv_reddot_yuv_len
86d66ae8   yuv_ret_err_yuv
86d9a144   yuv_ret_err_yuv_len
86d67e70   yuv_ret_ok_yuv
86d9a148   yuv_ret_ok_yuv_len
86d64be8   yuv_right_yuv
86d9a16c   yuv_right_yuv_len
86d6a580   yuv_sep_yuv
86d9a14c   yuv_sep_yuv_len
86d691f8   yuv_tip_yuv
86d9a150   yuv_tip_yuv_len
86d33040   yuv_title_adv_yuv
86d9a154   yuv_title_adv_yuv_len
86d36c28   yuv_title_colab_yuv
86d9a158   yuv_title_colab_yuv_len
86d3a810   yuv_title_menu_yuv
86d9a15c   yuv_title_menu_yuv_len
86d3e3f8   yuv_title_param_yuv
86d9a160   yuv_title_param_yuv_len
86d41fe0   yuv_title_upg_yuv
86d9a164   yuv_title_upg_yuv_len
86d2dd00   yuv_warn_yuv
86d9a178   yuv_warn_yuv_len


GLOBAL SYMBOLS: SORTED BY Symbol Address 

address    name
--------   ----
00000000   _argsize
00000001   __TI_args_main
00000001   xdc_runtime_Startup__EXECFXN__C
00000001   xdc_runtime_Startup__RESETFXN__C
00004000   __TI_STACK_SIZE
85c00000   _c_int00
85c00400   _Ipc_ResetVector
85c00408   Ipc_sr0MemorySetup
86c00000   __ASM__
86c00000   mutualTaskCmdMsg
86c00048   win_startX
86c00098   win_startY
86c000c8   __ISA__
86c000e0   __PLAT__
86c000e8   win_Width
86c00100   __TARG__
86c00128   __TRDR__
86c00138   win_Height
86c00188   crop_startX
86c001d8   crop_startY
86c00228   srcBuf
86c00240   dstBuf
86c00258   myBopTaskCtxt
86c00b68   tUIFsm
86c00b74   tPage_Flow
86c9e1b0   drvObj
86c9f028   drvInstance
86ca3808   edma3DrvChBoundRes
86cac0e8   ti_sysbios_knl_Task_Instance_State_0_stack__A
86cb00e8   ti_sysbios_knl_Task_Instance_State_1_stack__A
86cb40e8   ti_sysbios_knl_Task_Instance_State_2_stack__A
86cb48e8   edma3_dma_ch_max_val
86cb4900   edma3_link_ch_min_val
86cb4918   edma3_link_ch_max_val
86cb4930   edma3_qdma_ch_min_val
86cb4948   edma3_qdma_ch_max_val
86cb4960   edma3_log_ch_max_val
86cb4978   resMgrObj
86cbc310   userInstInitConfigArray
86cbdd50   resMgrInstanceArray
86cc05f0   ti_sdo_utils_NameServer_Module_State_0_nsRemoteHandle__A
86cc0600   ti_sysbios_family_c64p_Hwi_Instance_State_0_hookEnv__A
86cc0608   ti_sysbios_family_c64p_Hwi_Instance_State_1_hookEnv__A
86cc0610   ti_sysbios_family_c64p_Hwi_Instance_State_2_hookEnv__A
86cc0618   ti_sysbios_family_c64p_Hwi_Instance_State_3_hookEnv__A
86cc0620   ti_sysbios_family_c64p_Hwi_Instance_State_4_hookEnv__A
86cc0628   ti_sysbios_knl_Swi_Instance_State_0_hookEnv__A
86cc0630   ti_sysbios_knl_Task_Instance_State_0_hookEnv__A
86cc0638   ti_sysbios_knl_Task_Instance_State_1_hookEnv__A
86cc0640   ti_sysbios_knl_Task_Instance_State_2_hookEnv__A
86cc0648   xdc_runtime_SysMin_Module_State_0_outbuf__A
86cc4648   overlapRegMarkPts
86cc4668   seamMarkPts
86cc4678   persmat
86cc4708   focalLength
86cc4710   tanasinLUT
86cc4990   tpHandle
86cc55e8   outPitch
86cc55f0   inPitch
86cc55f8   inPtr
86cc5628   outPtr
86cc5630   pAlignOutPtr
86cc6260   svGlobalStruct
86cc632c   svSynthesisCreationParams
86cc6348   svSynthesis_memPtr
86cc648c   svSynthesisNumMemoryRequests
86cc6490   svPAlignCreationParams
86cc64b4   svPAlign_memPtr
86cc65f8   svPAlignNumMemoryRequests
86cc65fa   svGAlignCreationParams
86cc6620   svGAlign_memPtr
86cc6764   svGAlignNumMemoryRequests
86cc6768   _tmpnams
86cc68b0   ti_sdo_ipc_Notify_Module_State_0_notifyHandles__A
86cc68c0   svSaladBowlTransform
86cc6a4c   svPerspectiveTransform
86cc6c6c   svFisheyeTransform
86cc75c0   svWriteGAlignLUT02_13DMA
86ccd350   svWriteGAlignLUT02_13
86ccd360   svTransformPoints
86ccd608   svSortMatrixWIS
86ccda80   svSortArray
86ccdc54   svSetFrameCenters
86ccded0   svMax
86ccded8   svHammingDistance
86ccdf28   qrdcmp
86cce680   svFindTransformMatrix
86ccf044   svFindPersTransWRT2Inputs_float
86cd0370   corner_score_fixed_optimized
86cd03ac   svBlurImage
86cd05c0   svFindHarrisFeatures
86cd14b0   svDefineOutputRegions
86cd15e8   svBRIEFprocess
86cd4598   SV_GAlign_Run
86cd5dc0   A8CommTask
86cd62cc   spiFlashWrite
86cd6528   spiFlashRead
86cd66d4   spiFlashErase
86cd6810   main
86cd6980   A8CommCreate
86cd6a68   Init_Page
86cd6d78   FillBackground
86cd6dcc   UI_Init
86cd7000   BitBlt
86cd7434   Show_View
86cd7f10   BitBlt_Raw
86cd7f84   Show_Distance
86cd82e0   Show_WarnView
86cd8544   Show_Title
86cd8628   Show_Item
86cd89b8   Show_Button
86cd89c0   Show_Page
86cd8e98   UI_Key_Process
86cd94cc   dspAppTask
86cd9d80   UI_ShowDefaultPage
86cd9da0   UI_Process
86cda16c   TI_dsp_Processing
86cdafa0   Show_CollsionWarning
86cdb000   Show_ColabrationState
86cdb120   ti_srv_control_wrap
86cdb16c   ti_srv_process_post
86cdb1b8   ProcessArgs
86cdb3a8   InitTP
86cdb598   InitParams
86cdb760   ti_srv_create
86cdc8a8   ti_srv_control_static
86cdc960   ti_srv_control_dynnamic
86cdca40   svGALUT_overWrite
86cde344   singleCamFisheyeTransform
86cde6d0   AllocatePersisGlobalMemory
86cde700   updateViewSampleMapForViewKChannelP
86cde894   updateSampleGain
86cdeb3c   initAnchorPts
86cdedac   initSampleMap
86cdeef8   initGroupLinkedList
86cdf1a4   createToneCurve
86cdf5f8   optTcurvForViewKChannelP
86cdfcb4   svPhotometricCorrTcurv
86ce0768   svPhotometricCorrGain
86ce0f40   svFindOverlapValue
86ce1224   selectOverlapInliers
86ce1418   convertYUV2RGB
86ce1608   SV_PAlign_Run
86ce1a80   SV_Synthesis_Run
86ce36c0   pProcessFunc
86ce39d4   initPAlignRunScratchMem
86ce4568   initPAlignRunPersistentMem
86ce46a0   SV_PAlign_init
86ce48bc   SV_PAlign_algConfig
86ce4940   Alg_PhotometricAlignmentMemQuery
86ce4a90   Alg_PhotometricAlignmentDelete
86ce4b70   Alg_PhotometricAlignmentCreate
86ce4e2c   Alg_PhotometricAlignmentControl
86ce4e40   sProcessFunc
86ce4f94   initSynthesisRunScratchMem
86ce4fa8   initSynthesisRunScratchL2Mem
86ce4fc8   initSynthesisRunPersistentMem
86ce50c4   SV_DefineBlendingWeights
86ce5a28   SV_Synthesis_init
86ce5e2c   SV_Synthesis_algConfig
86ce5ea0   Alg_SynthesisMemQuery
86ce6014   Alg_SynthesisDelete
86ce60b0   Alg_SynthesisCreate
86ce6214   Alg_SynthesisControl
86ce6220   mirrored_image
86ce6270   cse_sqrt
86ce63e0   cse_normll
86ce64a0   cse_gradY
86ce6530   cse_gradX
86ce6604   cse_calculate_score
86ce6a54   cse_core
86ce70d4   cse_compress_score32
86ce72ec   cse_compress_score16
86ce7460   ti_sdo_ipc_GateMP_Instance_init__F
86ce8600   edmaYextract
86ce8798   edmaWarpImgCpy7
86ce8998   edmaWarpImgCpy6
86ce8b2c   edmaWarpImgCpy5
86ce8cb8   edmaWarpImgCpy4
86ce8e38   edmaWarpImgCpy3
86ce8fb8   edmaWarpImgCpy2
86ce9138   edmaWarpImgCpy1
86ce92b8   edmaWarpImgCpy
86ce9438   edmaMemcpy
86ce95b8   edmaDoneCb
86ce9620   initGAlignRunScratchMem
86ce9a88   initGAlignRunPersistentMem
86ce9af8   gProcessFunc
86ce9d2c   SV_GAlign_init
86cea160   SV_GAlign_algConfig
86cea220   Alg_GeometricAlignmentMemQuery
86cea38c   Alg_GeometricAlignmentDelete
86cea474   Alg_GeometricAlignmentCreate
86cea608   Alg_GeometricAlignmentControl
86cea620   EDMA3_DRV_requestChannel
86ceb260   EDMA3_RM_allocResource
86cebde0   ti_sdo_ipc_heaps_HeapMemMP_alloc__E
86cec900   ti_sdo_ipc_heaps_HeapMemMP_free__E
86ced360   Ipc_attach
86cedd20   xdc_runtime_System_doPrint__I
86cee6c0   spi_flash_probe_spansion
86ceed2c   spansion_erase
86cef020   ti_sdo_ipc_transports_TransportShm_Instance_init__F
86cef940   ti_sdo_ipc_ListMP_Instance_init__F
86cf0200   ti_sdo_ipc_GateMP_Instance_finalize__F
86cf0a80   MessageQ_put
86cf12c0   ti_sdo_ipc_heaps_HeapBufMP_Instance_init__F
86cf1aa0   ti_sdo_ipc_heaps_HeapBufMP_postInit__I
86cf2550   winbond_read_fast
86cf25d4   winbond_erase
86cf28f0   spi_flash_probe_winbond
86cf2a60   spi_xfer_write_fast
86cf2b6c   spi_xfer_read_fast
86cf2d20   spi_xfer
86cf2eac   spi_setup_slave
86cf2fa0   spi_release_bus
86cf2fe8   spi_init
86cf2fec   spi_free_slave
86cf2ff8   spi_cs_is_valid
86cf3000   spi_cs_deactivate
86cf3004   spi_cs_activate
86cf3008   spi_claim_bus_write_fast
86cf3044   spi_claim_bus_read_fast
86cf3080   spi_claim_bus_back
86cf30b8   spi_claim_bus
86cf31e0   ti_sysbios_family_c64p_Exception_handler__I
86cf3960   ti_sdo_ipc_heaps_HeapMemMP_Instance_init__F
86cf47e0   NameServer_add
86cf4e80   ti_sdo_ipc_nsremote_NameServerRemoteNotify_Instance_init__F
86cf5520   ti_sysbios_heaps_HeapMem_alloc__E
86cf5b80   Notify_sendEvent
86cf61a0   ti_sdo_ipc_SharedRegion_start__F
86cf67a0   ti_sysbios_heaps_HeapMem_free__E
86cf6da0   EDMA3_RM_open
86cf7380   Notify_registerEventSingle
86cf7960   Notify_unregisterEventSingle
86cf7f40   SharedRegion_setEntry
86cf8520   ListMP_getHead
86cf90a0   spi_flash_cmd_read
86cf9164   spi_flash_read_common
86cf9244   spi_flash_cmd
86cf9314   spi_flash_probe
86cf9570   spi_flash_free
86cf95a0   spi_flash_cmd_write
86cf9660   __c6xabi_divd
86cf9d04   Vps_rprintf
86cf9d60   Vps_printf
86cf9ec4   RemoteDebug_putChar
86cf9f30   RemoteDebug_init
86cf9f44   RemoteDebug_getString
86cfa0c0   RemoteDebug_getChar
86cfa190   RemoteDebug_deInit
86cfa1a0   ti_sdo_ipc_transports_TransportShm_put__E
86cfa720   ti_sysbios_knl_Task_Instance_finalize__F
86cfaca0   NameServer_get
86cfb200   ti_sdo_ipc_Ipc_procSyncStart__I
86cfb740   ti_sdo_ipc_nsremote_NameServerRemoteNotify_get__F
86cfbc80   ti_sdo_ipc_notifyDrivers_NotifyDriverShm_Instance_init__F
86cfc180   ti_sysbios_utils_Load_update__E
86cfc680   ti_sdo_ipc_heaps_HeapMemMP_getStats__E
86cfcb40   ti_sysbios_knl_Semaphore_pend__E
86cfd000   HeapBufMP_sharedMemReq
86cfd4a0   ti_sdo_ipc_gates_GatePeterson_Instance_init__F
86cfd940   ti_sdo_ipc_GateMP_setRegion0Reserved__F
86cfddc0   ti_sdo_ipc_family_c6a8149_InterruptDsp_intRegister__E
86cfe240   ti_sdo_ipc_nsremote_NameServerRemoteNotify_swiFxn__I
86cfe6c0   ti_sysbios_knl_Task_Module_startup__F
86cfeb40   ListMP_putTail
86cfefa0   _printfi
86cff860   ti_sdo_ipc_Ipc_procSyncFinish__I
86d00100   ti_sdo_ipc_MessageQ_Instance_init__F
86d00540   EDMA3_RM_freeResource
86d00960   ti_sdo_ipc_heaps_HeapMemMP_postInit__I
86d00d80   sharedMemFree
86d00e04   sharedMemAlloc
86d00eb8   initSharedRegion
86d010b4   deInitSharedRegion
86d01180   ti_sdo_ipc_Notify_Instance_init__F
86d01580   ti_sysbios_family_c64p_Hwi_dispatchC__I
86d01980   ti_sysbios_utils_Load_logLoads__I
86d01d80   ti_sdo_ipc_SharedRegion_reserveMemory__F
86d02140   ti_sysbios_knl_Task_Instance_init__F
86d02500   ti_sysbios_knl_Task_setPri__E
86d028c0   fputs
86d02c60   HeapMemMP_sharedMemReq
86d02fe0   SharedRegion_clearEntry
86d03360   ti_sysbios_timers_dmtimer_Timer_checkFreq__I
86d036e0   EDMA3_RM_create
86d03a40   SharedRegion_getPtr
86d03da0   commandQPut
86d03dac   commandQOpen
86d03db8   commandQInitJ5ecoProject
86d03f68   commandQInit
86d04054   commandQGet
86d04064   commandQDelete
86d04070   commandQDeInit
86d040c0   commandQCreate
86d040cc   commandQAlloc
86d04100   ti_sysbios_knl_Clock_Instance_init__F
86d04460   GateMP_sharedMemReq
86d04ae0   HeapBufMP_open
86d05120   EDMA3_DRV_freeChannel
86d05420   GateMP_openByAddr
86d05720   ti_sdo_ipc_transports_TransportShm_openByAddr__F
86d05a20   ti_sysbios_knl_Swi_run__I
86d05d20   MessageQ_alloc
86d06000   SharedRegion_getEntry
86d062e0   SharedRegion_getSRPtr
86d068a0   ti_sdo_ipc_heaps_HeapBufMP_free__E
86d06b80   ti_sdo_ipc_notifyDrivers_NotifyDriverShm_isr__I
86d06e60   ti_sysbios_gates_GateMutexPri_enter__E
86d07140   ti_sysbios_heaps_HeapMem_Instance_init__F
86d07420   ti_sysbios_knl_Task_sleep__E
86d07700   EDMA3_DRV_open
86d079c0   Ipc_writeConfig
86d07c80   MessageQ_open
86d07f40   ti_sdo_ipc_gates_GateHWSpinlock_Instance_init__F
86d08200   Ipc_start
86d084a0   NameServer_getLocal
86d091c0   ti_sdo_ipc_heaps_HeapBufMP_Instance_finalize__F
86d09460   ti_sysbios_knl_Clock_workFunc__E
86d09700   ti_sysbios_timers_dmtimer_Timer_setPeriodMicroSecs__E
86d099a0   EDMA3_DRV_create
86d09c20   EDMA3_DRV_disableTransfer
86d09ea0   __c6xabi_divf
86d0a3a0   sin
86d0a620   ti_sysbios_family_c64p_Cache_Module_startup__F
86d0a8a0   ti_sysbios_family_c64p_Hwi_Module_startup__F
86d0ab20   ti_sysbios_timers_dmtimer_Timer_startup__E
86d0ada0   xdc_runtime_Core_createObject__I
86d0b020   xdc_runtime_Error_raiseX__F
86d0b2a0   xdc_runtime_System_printfExtend__I
86d0b520   EDMA3_DRV_enableTransfer
86d0b780   ListMP_sharedMemReq
86d0b9e0   __c6xabi_divull
86d0bea0   ti_sdo_ipc_ListMP_Instance_finalize__F
86d0c100   ti_sdo_ipc_SharedRegion_checkOverlap__I
86d0c360   ti_sdo_ipc_heaps_HeapMemMP_Instance_finalize__F
86d0c5c0   ti_sdo_ipc_notifyDrivers_NotifyDriverShm_disableEvent__E
86d0c820   ti_sdo_ipc_notifyDrivers_NotifyDriverShm_sharedMemReq__F
86d0ca80   ti_sysbios_family_c64p_Hwi_reconfig__E
86d0cce0   ti_sysbios_knl_Swi_Module_startup__F
86d0cf40   ti_sysbios_utils_Load_taskCreateHook__E
86d0d1a0   xdc_runtime_Startup_startMods__I
86d0d640   ti_sdo_ipc_MessageQ_Instance_finalize__F
86d0d880   ti_sdo_ipc_family_c6a8149_InterruptDsp_intUnregister__E
86d0dac0   ti_sysbios_family_c64p_Exception_internalHandler__I
86d0dd00   ti_sysbios_knl_Semaphore_post__E
86d0df40   MessageQ_get
86d0e380   fputc
86d0e5a0   ti_sdo_ipc_GateMP_start__F
86d0e7c0   ti_sdo_ipc_transports_TransportShm_Instance_finalize__F
86d0e9e0   ti_sysbios_knl_Task_exit__E
86d0ec00   ti_sysbios_knl_Task_schedule__I
86d0ee20   ti_sysbios_knl_Task_startCore__E
86d0f040   GateMP_enter
86d0f240   GateMP_leave
86d0f440   ListMP_openByAddr
86d0f840   ti_sysbios_family_c64p_Hwi_dispatchAlways
86d0fa40   setvbuf
86d0fc40   ti_sdo_ipc_family_c6a8149_NotifySetup_attach__E
86d0fe40   ti_sdo_ipc_notifyDrivers_NotifyDriverShm_sendEvent__E
86d10040   ti_sysbios_family_c64p_Cache_inv__E
86d10240   ti_sysbios_family_c64p_Cache_wbInv__E
86d10440   ti_sysbios_gates_GateMutex_enter__E
86d10640   ti_sysbios_knl_Swi_Instance_init__F
86d10840   ti_sysbios_timers_dmtimer_Timer_start__E
86d10a40   edma3init
86d10c20   ti_sdo_ipc_GateMP_attach__F
86d10e00   ti_sdo_ipc_GateMP_getFreeResource__I
86d10fe0   ti_sdo_ipc_heaps_HeapBufMP_alloc__E
86d111c0   ti_sysbios_family_c64p_Hwi_Instance_init__F
86d113a0   ti_sysbios_knl_Task_postInit__I
86d11580   ti_sysbios_utils_Load_idleFxn__E
86d11760   ti_sysbios_utils_Load_taskDeleteHook__E
86d11940   EDMA3_RM_close
86d11e80   ti_sdo_ipc_notifyDrivers_NotifyDriverShm_registerEvent__E
86d12040   ti_sysbios_knl_Swi_Instance_finalize__F
86d12200   ti_sysbios_knl_Swi_post__E
86d123c0   HeapBufMP_openByAddr
86d12560   HeapMemMP_openByAddr
86d12700   SharedRegion_entryInit
86d128a0   SharedRegion_getCacheLineSize
86d12a40   SharedRegion_getHeap
86d12be0   SharedRegion_isCacheEnabled
86d12d80   __c6xabi_divul
86d12f20   atan
86d13260   ti_sdo_ipc_GateMP_openRegion0Reserved__F
86d13400   ti_sdo_ipc_family_c6a8149_InterruptDsp_intDisable__E
86d135a0   ti_sdo_ipc_family_c6a8149_InterruptDsp_intEnable__E
86d13740   ti_sdo_ipc_gates_GateHWSpinlock_enter__E
86d138e0   ti_sdo_ipc_notifyDrivers_NotifyDriverShm_enableEvent__E
86d13a80   ti_sdo_ipc_nsremote_NameServerRemoteNotify_attach__E
86d13c20   ti_sysbios_family_c64p_Hwi_Instance_finalize__F
86d13dc0   ti_sysbios_knl_Task_unblockI__E
86d13f60   EDMA3_RM_registerTccCb
86d140e0   HOSTrename
86d14260   MultiProc_getName
86d143e0   Notify_intLineRegistered
86d14560   open
86d146e0   registerEdma3Interrupts
86d14860   ti_sysbios_family_c64p_Exception_dispatch__E
86d149e0   ti_sdo_ipc_MessageQ_registerTransport__F
86d14b60   ti_sdo_ipc_MessageQ_unregisterTransport__F
86d14ce0   ti_sdo_ipc_Notify_Module_startup__F
86d14e60   ti_sdo_ipc_gates_GatePeterson_enter__E
86d14fe0   ti_sdo_ipc_notifyDrivers_NotifyDriverShm_unregisterEvent__E
86d15160   ti_sdo_utils_NameServer_Module_startup__F
86d152e0   ti_sysbios_knl_Swi_schedule__I
86d15460   ti_sysbios_syncs_SyncSem_Instance_init__F
86d155e0   xdc_runtime_Text_putSite__F
86d15760   EDMA3_DRV_close
86d158c0   EDMA3_RM_unregisterTccCb
86d15a20   Notify_attach
86d15e40   sqrt
86d15fa0   ti_sdo_ipc_GateMP_createLocal__F
86d16100   ti_sdo_ipc_gates_GateHWSpinlock_Module_startup__F
86d16260   ti_sdo_utils_NameServer_isRegistered__E
86d163c0   ti_sdo_utils_NameServer_registerRemoteDriver__E
86d16520   ti_sdo_utils_NameServer_unregisterRemoteDriver__E
86d16680   SV_Global_algConfig
86d167e0   ti_sysbios_knl_Task_yield__E
86d16940   EDMA3_DRV_setPaRAM
86d16a80   GateMP_close
86d16bc0   MessageQ_registerHeap
86d16d00   _auto_init_elf
86d170c0   ti_sdo_ipc_Notify_exec__F
86d17200   ti_sdo_ipc_family_c6a8149_InterruptDsp_intShmStub__I
86d17340   ti_sdo_ipc_transports_TransportShm_sharedMemReq__F
86d17480   ti_sysbios_gates_GateSwi_enter__E
86d175c0   ti_sysbios_knl_Clock_Instance_finalize__F
86d17700   ti_sysbios_knl_Semaphore_Instance_init__F
86d17840   ti_sysbios_knl_Task_blockI__E
86d17980   EDMA3_DRV_clearErrorBits
86d17aa0   MessageQ_unregisterHeap
86d17bc0   _closefile
86d17f20   fseek
86d18160   ti_sdo_ipc_MessageQ_Module_startup__F
86d18280   ti_sdo_ipc_MessageQ_Object__create__S
86d183a0   ti_sdo_ipc_Notify_Object__create__S
86d184c0   ti_sdo_ipc_gates_GateHWSpinlock_leave__E
86d185e0   ti_sdo_ipc_gates_GatePeterson_Object__create__S
86d18700   ti_sdo_ipc_nsremote_NameServerRemoteNotify_Instance_finalize__F
86d18820   ti_sdo_ipc_nsremote_NameServerRemoteNotify_Object__create__S
86d18940   ti_sdo_ipc_transports_TransportShm_Object__create__S
86d18a60   ti_sysbios_family_c64p_Hwi_Object__create__S
86d18b80   ti_sysbios_knl_Swi_Object__create__S
86d18ca0   ti_sysbios_knl_Task_Object__create__S
86d18dc0   ti_sysbios_timers_dmtimer_Timer_Module_startup__F
86d18ee0   ti_sysbios_xdcruntime_GateThreadSupport_leave__F
86d19000   xdc_runtime_Text_putLab__F
86d19120   HOSTlseek
86d19220   _wrt_ok
86d19320   fprintf
86d19420   ti_sdo_ipc_GateMP_Object__create__S
86d19520   ti_sdo_ipc_ListMP_Object__create__S
86d19620   ti_sdo_ipc_Notify_Instance_finalize__F
86d19720   ti_sdo_ipc_SharedRegion_attach__F
86d19820   ti_sdo_ipc_SharedRegion_clearReservedMemory__F
86d19920   ti_sdo_ipc_family_c6a8149_InterruptDsp_intSend__E
86d19a20   ti_sdo_ipc_gates_GateMPSupportNull_enter__E
86d19b20   ti_sdo_ipc_gates_GateMPSupportNull_leave__E
86d19c20   ti_sdo_ipc_heaps_HeapBufMP_Object__create__S
86d19d20   ti_sdo_ipc_heaps_HeapMemMP_Object__create__S
86d19e20   ti_sdo_ipc_notifyDrivers_NotifyDriverShm_Object__create__S
86d19f20   ti_sdo_ipc_transports_TransportShmSetup_attach__E
86d1a020   ti_sysbios_family_c64p_EventCombiner_dispatch__F
86d1a120   ti_sysbios_gates_GateMutexPri_leave__E
86d1a220   ti_sysbios_knl_Swi_restoreHwi__E
86d1a320   ti_sysbios_syncs_SyncSem_Object__create__S
86d1a420   xdc_runtime_Core_deleteObject__I
86d1a520   xdc_runtime_Startup_exec__F
86d1a620   xdc_runtime_Text_putMod__F
86d1a720   xdc_runtime_Text_visitRope2__I
86d1a820   xdc_runtime_knl_GateThread_Object__create__S
86d1a920   EDMA3_DRV_delete
86d1aa00   HOSTopen
86d1aae0   HeapBufMP_create
86d1abc0   __c6xabi_fltllif
86d1aca0   __c6xabi_divi
86d1aca0   __divi
86d1ad80   atoi
86d1ae60   close
86d1af40   edma3OsProtectEntry
86d1b020   fflush
86d1b100   ltoa
86d1b1e0   memset
86d1b2c0   printf
86d1b3a0   ti_sdo_ipc_family_c6a8149_InterruptDsp_intClear__E
86d1b480   ti_sdo_ipc_family_c6a8149_NotifySetup_sharedMemReq__E
86d1b560   ti_sdo_ipc_heaps_HeapBufMP_getStats__F
86d1b640   ti_sysbios_utils_Load_hwiBeginHook__E
86d1b720   xdc_runtime_Error_print__F
86d1b800   xdc_runtime_Memory_alloc__F
86d1b8e0   EDMA3_RM_delete
86d1b9a0   HOSTread
86d1ba60   HOSTunlink
86d1bb20   HOSTwrite
86d1bbe0   HeapMemMP_create
86d1bca0   ListMP_create
86d1bd60   SharedRegion_getId
86d1bee0   __cxa_finalize
86d1bfa0   __c6xabi_divu
86d1bfa0   __divu
86d1c060   __c6xabi_remi
86d1c060   __remi
86d1c1e0   _doflush
86d1c2a0   edma3OsProtectExit
86d1c360   exit
86d1c420   sampleConfigScr
86d1c4e0   ti_sdo_ipc_GateMP_getRegion0ReservedSize__F
86d1c5a0   ti_sysbios_BIOS_errorRaiseHook__I
86d1c660   ti_sysbios_gates_GateAll_leave__E
86d1c720   ti_sysbios_heaps_HeapMem_getStats__E
86d1c7e0   ti_sysbios_knl_Clock_logTick__E
86d1c8a0   ti_sysbios_knl_Swi_postInit__I
86d1c960   ti_sysbios_knl_Task_allBlockedFunction__I
86d1ca20   ti_sysbios_utils_Load_taskSwitchHook__E
86d1cae0   unregisterEdma3Interrupts
86d1cba0   xdc_runtime_System_formatNum__I
86d1cc60   EDMA3_DRV_initXbarEventMap
86d1cd00   HOSTclose
86d1cda0   MessageQ_create
86d1ce40   __c6xabi_fltullf
86d1cee0   __c6xabi_nround
86d1cf80   __c6xabi_remu
86d1cf80   __remu
86d1d020   _cleanup
86d1d2a0   ti_sysbios_family_c64p_Hwi_plug__E
86d1d340   edma3deinit
86d1d480   lseek
86d1d520   malloc
86d1d5c0   memcpy
86d1d660   modf
86d1d700   ti_sdo_ipc_gates_GateHWSpinlock_Object__create__S
86d1d7a0   ti_sdo_ipc_gates_GateMPSupportNull_Object__create__S
86d1d840   ti_sdo_ipc_gates_GatePeterson_leave__E
86d1d8e0   ti_sysbios_heaps_HeapMem_init__I
86d1d980   ti_sysbios_knl_Clock_Object__create__S
86d1da20   ti_sysbios_knl_Idle_run__E
86d1dac0   ti_sysbios_knl_Semaphore_Object__create__S
86d1db60   ti_sysbios_syncs_SyncSem_wait__F
86d1dc00   ti_sysbios_utils_Load_swiBeginHook__E
86d1dca0   write
86d1dd40   xdc_runtime_Assert_raise__I
86d1dde0   xdc_runtime_SysMin_abort__F
86d1de80   xdc_runtime_SysMin_flush__F
86d1df20   xdc_runtime_SysMin_putch__F
86d1dfc0   HeapBufMP_Params_init
86d1e040   __c6xabi_llshl
86d1e140   ti_sysbios_family_c62_TaskSupport_swap__E
86d1e1c0   edma3MemCpy
86d1e240   edma3OsSemCreate
86d1e2c0   readmsg
86d1e340   sampleInitXbarEvt
86d1e3c0   ti_sdo_ipc_family_c6a8149_InterruptDsp_intEveShmStub__I
86d1e440   ti_sdo_ipc_notifyDrivers_NotifyDriverShm_Instance_finalize__F
86d1e4c0   ti_sdo_ipc_nsremote_NameServerRemoteNotify_detach__E
86d1e540   ti_sdo_ipc_transports_TransportShm_swiFxn__I
86d1e5c0   ti_sdo_utils_List_Object__create__S
86d1e640   ti_sysbios_BIOS_exitFunc__I
86d1e6c0   ti_sysbios_family_c62_TaskSupport_start__E
86d1e740   ti_sysbios_family_c64p_Cache_invL1pAll__E
86d1e7c0   ti_sysbios_gates_GateAll_Object__create__S
86d1e840   ti_sysbios_gates_GateHwi_Object__create__S
86d1e8c0   ti_sysbios_gates_GateMutexPri_Object__create__S
86d1e940   ti_sysbios_gates_GateMutex_Object__create__S
86d1e9c0   ti_sysbios_gates_GateSwi_Object__create__S
86d1ea40   ti_sysbios_gates_GateSwi_leave__E
86d1eac0   ti_sysbios_heaps_HeapMem_Object__create__S
86d1eb40   ti_sysbios_knl_Clock_doTick__I
86d1ebc0   ti_sysbios_knl_Queue_Object__create__S
86d1ec40   ti_sysbios_knl_Swi_startup__E
86d1ecc0   ti_sysbios_knl_Task_restore__E
86d1ed40   ti_sysbios_utils_Load_hwiEndHook__E
86d1edc0   ti_sysbios_utils_Load_swiEndHook__E
86d1ee40   ti_sysbios_xdcruntime_GateThreadSupport_Object__create__S
86d1eec0   unlink
86d1ef40   vsnprintf
86d1efc0   xdc_runtime_Core_assignLabel__I
86d1f040   xdc_runtime_Core_assignParams__I
86d1f0c0   xdc_runtime_SysMin_output__I
86d1f140   xdc_runtime_System_atexit__F
86d1f1c0   xdc_runtime_System_rtsExit__I
86d1f240   xdc_runtime_Text_printVisFxn__I
86d1f2c0   xdc_runtime_Text_xprintf__I
86d1f340   EDMA3_RM_initXbarEventMap
86d1f3a0   GateMP_Params_init
86d1f400   HeapMemMP_Params_init
86d1f460   __c6xabi_abort_msg
86d1f4c0   __c6xabi_llshr
86d1f520   _subcull
86d1f580   edma3OsSemTake
86d1f5e0   fopen
86d1f640   memccpy
86d1f6a0   sprintf
86d1f760   ti_sdo_ipc_GateMP_Object__delete__S
86d1f7c0   ti_sdo_ipc_ListMP_Object__delete__S
86d1f820   ti_sdo_ipc_MessageQ_Object__delete__S
86d1f880   ti_sdo_ipc_family_c6a8149_NotifySetup_numIntLines__E
86d1f8e0   ti_sdo_ipc_gates_GateHWSpinlock_Handle__label__S
86d1f940   ti_sdo_ipc_gates_GateHWSpinlock_Object__delete__S
86d1f9a0   ti_sdo_ipc_gates_GateMPSupportNull_Handle__label__S
86d1fa00   ti_sdo_ipc_gates_GateMPSupportNull_Object__delete__S
86d1fa60   ti_sdo_ipc_gates_GatePeterson_Handle__label__S
86d1fac0   ti_sdo_ipc_gates_GatePeterson_Instance_finalize__F
86d1fb20   ti_sdo_ipc_gates_GatePeterson_Object__delete__S
86d1fb80   ti_sdo_ipc_heaps_HeapBufMP_Handle__label__S
86d1fbe0   ti_sdo_ipc_heaps_HeapBufMP_Object__delete__S
86d1fc40   ti_sdo_ipc_heaps_HeapMemMP_Handle__label__S
86d1fca0   ti_sdo_ipc_heaps_HeapMemMP_Object__delete__S
86d1fd00   ti_sdo_ipc_notifyDrivers_NotifyDriverShm_Handle__label__S
86d1fd60   ti_sdo_ipc_notifyDrivers_NotifyDriverShm_Object__delete__S
86d1fdc0   ti_sdo_ipc_notifyDrivers_NotifyDriverShm_setNotifyHandle__E
86d1fe20   ti_sdo_ipc_nsremote_NameServerRemoteNotify_Handle__label__S
86d1fe80   ti_sdo_ipc_nsremote_NameServerRemoteNotify_Object__delete__S
86d1fee0   ti_sdo_ipc_transports_TransportShmSetup_sharedMemReq__E
86d1ff40   ti_sdo_ipc_transports_TransportShm_Handle__label__S
86d1ffa0   ti_sdo_ipc_transports_TransportShm_Object__delete__S
86d20000   ti_sysbios_BIOS_registerRTSLock__I
86d20060   ti_sysbios_family_c64p_Cache_setMar__E
86d200c0   ti_sysbios_family_c64p_EventCombiner_Module_startup__F
86d20120   ti_sysbios_family_c64p_EventCombiner_dispatchPlug__F
86d20180   ti_sysbios_family_c64p_Exception_Module_startup__F
86d201e0   ti_sysbios_family_c64p_Hwi_Object__delete__S
86d20240   ti_sysbios_gates_GateAll_Handle__label__S
86d202a0   ti_sysbios_gates_GateAll_Object__delete__S
86d20300   ti_sysbios_gates_GateAll_enter__E
86d20360   ti_sysbios_gates_GateHwi_Handle__label__S
86d203c0   ti_sysbios_gates_GateHwi_Object__delete__S
86d20420   ti_sysbios_gates_GateMutexPri_Handle__label__S
86d20480   ti_sysbios_gates_GateMutexPri_Object__delete__S
86d204e0   ti_sysbios_gates_GateMutex_Handle__label__S
86d20540   ti_sysbios_gates_GateMutex_Instance_init__F
86d205a0   ti_sysbios_gates_GateMutex_Object__delete__S
86d20600   ti_sysbios_gates_GateSwi_Handle__label__S
86d20660   ti_sysbios_gates_GateSwi_Object__delete__S
86d206c0   ti_sysbios_heaps_HeapMem_Handle__label__S
86d20720   ti_sysbios_heaps_HeapMem_Object__delete__S
86d20780   ti_sysbios_knl_Clock_Module_startup__F
86d207e0   ti_sysbios_knl_Semaphore_Object__delete__S
86d20840   ti_sysbios_knl_Semaphore_pendTimeout__I
86d208a0   ti_sysbios_knl_Task_enter__I
86d20900   ti_sysbios_syncs_SyncSem_Handle__label__S
86d20960   ti_sysbios_syncs_SyncSem_Object__delete__S
86d209c0   ti_sysbios_timers_dmtimer_Timer_getPeriod__E
86d20a20   ti_sysbios_timers_dmtimer_Timer_stub__E
86d20a80   ti_sysbios_xdcruntime_GateThreadSupport_Object__delete__S
86d20ae0   ti_syslink_ipc_rtos_Syslink_attach
86d20b40   writemsg
86d20b98   C$$IO$$
86d20ba0   xdc_runtime_GateNull_Handle__label__S
86d20c00   xdc_runtime_GateNull_Object__create__S
86d20c60   xdc_runtime_GateNull_Object__delete__S
86d20cc0   xdc_runtime_Memory_calloc__F
86d20d20   xdc_runtime_Memory_valloc__F
86d20d80   xdc_runtime_SysMin_Module_startup__F
86d20de0   xdc_runtime_SysMin_exit__F
86d20e40   xdc_runtime_System_aprintf_va__F
86d20ea0   xdc_runtime_System_printf_va__F
86d20f00   xdc_runtime_Text_cordText__F
86d20f60   xdc_runtime_knl_GateThread_Handle__label__S
86d20fc0   xdc_runtime_knl_GateThread_Object__delete__S
86d21020   __c6xabi_frcmpyd_div
86d21060   __c6xabi_isinf
86d210e0   __c6xabi_llshru
86d21120   __c6xabi_strasgi_64plus
86d21120   __strasgi_64plus
86d21160   _args_main
86d21220   ti_sysbios_family_c62_TaskSupport_buildTaskStack
86d21260   ti_sysbios_family_xxx_Hwi_switchToIsrStack
86d212a0   edma3OsSemDelete
86d212e0   edma3OsSemGive
86d21320   edma3ParamCpy
86d21360   free
86d213a0   llabs
86d21420   sampleMapXbarEvtToChan
86d21460   ti_sdo_ipc_gates_GatePeterson_sharedMemReq__E
86d214a0   ti_sdo_ipc_nsremote_NameServerRemoteNotify_sharedMemReq__E
86d214e0   ti_sdo_utils_NameServer_Module__startupDone__F
86d21520   ti_sdo_utils_NameServer_Object__get__S
86d21560   ti_sysbios_BIOS_startFunc__I
86d215a0   ti_sysbios_family_c64p_EventCombiner_disableEvent__F
86d215e0   ti_sysbios_family_c64p_EventCombiner_enableEvent__F
86d21620   ti_sysbios_family_c64p_EventCombiner_unused__F
86d21660   ti_sysbios_family_c64p_Hwi_Module__startupDone__F
86d216a0   ti_sysbios_family_c64p_Hwi_disableInterrupt__E
86d216e0   ti_sysbios_family_c64p_Hwi_enableInterrupt__E
86d21720   ti_sysbios_family_c64p_ti81xx_TimerSupport_Module__startupDone__F
86d21760   ti_sysbios_gates_GateMutexPri_Instance_init__F
86d217a0   ti_sysbios_gates_GateMutexPri_Object__destruct__S
86d217e0   ti_sysbios_gates_GateMutex_leave__E
86d21820   ti_sysbios_hal_Timer_Module__startupDone__F
86d21860   ti_sysbios_heaps_HeapMem_Object__get__S
86d218a0   ti_sysbios_knl_Clock_Object__destruct__S
86d218e0   ti_sysbios_knl_Semaphore_Object__destruct__S
86d21920   ti_sysbios_knl_Swi_Object__destruct__S
86d21960   ti_sysbios_knl_Swi_Object__get__S
86d219a0   ti_sysbios_knl_Task_Object__get__S
86d219e0   ti_sysbios_knl_Task_sleepTimeout__I
86d21a20   ti_sysbios_syncs_SyncSem_Instance_finalize__F
86d21a60   ti_sysbios_timers_dmtimer_Timer_Module__startupDone__F
86d21aa0   ti_sysbios_xdcruntime_GateThreadSupport_Instance_init__F
86d21ae0   _TSC_enable
86d21ae8   _TSC_read
86d21b20   xdc_runtime_Error_check__F
86d21b60   xdc_runtime_Error_init__F
86d21ba0   xdc_runtime_Memory_free__F
86d21be0   xdc_runtime_Registry_findById__F
86d21c20   xdc_runtime_System_abort__F
86d21c60   xdc_runtime_System_aprintf__E
86d21ca0   xdc_runtime_System_printf__E
86d21ce0   xdc_runtime_System_sprintf__E
86d21d20   xdc_runtime_Text_ropeText__F
86d21d60   xdc_runtime_knl_GateThread_Instance_finalize__F
86d21da0   xdc_runtime_knl_GateThread_Instance_init__F
86d21de0   HeapBufMP_close
86d21e00   HeapBufMP_delete
86d21e20   MessageQ_delete
86d21e40   MultiProc_self
86d21e60   __c6xabi_errno_addr
86d21e80   __c6xabi_negll
86d21ea0   __c6xabi_trunc
86d21ec0   __cxa_atexit
86d21ee0   __cxa_ia64_exit
86d21f00   __xdc__init
86d21f20   _nop
86d21fe0   _register_lock
86d22000   _register_unlock
86d22020   ti_sysbios_family_c62_TaskSupport_glue
86d22040   ti_sysbios_family_xxx_Hwi_switchToTaskStack
86d22060   C$$EXIT
86d22060   abort
86d22080   atexit
86d220a0   determineProcId
86d220c0   edma3MemZero
86d220e0   isGblConfigRequired
86d22100   lisrEdma3CCErrHandler0
86d22120   lisrEdma3ComplHandler0
86d22140   lisrEdma3TC0ErrHandler0
86d22160   lisrEdma3TC1ErrHandler0
86d22180   lisrEdma3TC2ErrHandler0
86d221a0   lisrEdma3TC3ErrHandler0
86d221c0   lisrEdma3TC4ErrHandler0
86d221e0   lisrEdma3TC5ErrHandler0
86d22200   lisrEdma3TC6ErrHandler0
86d22220   lisrEdma3TC7ErrHandler0
86d22260   remove
86d22280   ti_sdo_ipc_GateMP_Params__init__S
86d222a0   ti_sdo_ipc_GateMP_RemoteCustom1Proxy_Object__create__S
86d222c0   ti_sdo_ipc_GateMP_RemoteCustom1Proxy_Object__delete__S
86d222e0   ti_sdo_ipc_GateMP_RemoteCustom1Proxy_Params__init__S
86d22300   ti_sdo_ipc_GateMP_RemoteCustom1Proxy_Proxy__abstract__S
86d22320   ti_sdo_ipc_GateMP_RemoteCustom1Proxy_Proxy__delegate__S
86d22340   ti_sdo_ipc_GateMP_RemoteCustom1Proxy_getReservedMask__E
86d22360   ti_sdo_ipc_GateMP_RemoteCustom1Proxy_sharedMemReq__E
86d22380   ti_sdo_ipc_GateMP_RemoteCustom2Proxy_Object__create__S
86d223a0   ti_sdo_ipc_GateMP_RemoteCustom2Proxy_Object__delete__S
86d223c0   ti_sdo_ipc_GateMP_RemoteCustom2Proxy_Params__init__S
86d223e0   ti_sdo_ipc_GateMP_RemoteCustom2Proxy_Proxy__abstract__S
86d22400   ti_sdo_ipc_GateMP_RemoteCustom2Proxy_Proxy__delegate__S
86d22420   ti_sdo_ipc_GateMP_RemoteCustom2Proxy_getReservedMask__E
86d22440   ti_sdo_ipc_GateMP_RemoteCustom2Proxy_sharedMemReq__E
86d22460   ti_sdo_ipc_GateMP_RemoteSystemProxy_Object__create__S
86d22480   ti_sdo_ipc_GateMP_RemoteSystemProxy_Object__delete__S
86d224a0   ti_sdo_ipc_GateMP_RemoteSystemProxy_Params__init__S
86d224c0   ti_sdo_ipc_GateMP_RemoteSystemProxy_Proxy__abstract__S
86d224e0   ti_sdo_ipc_GateMP_RemoteSystemProxy_Proxy__delegate__S
86d22500   ti_sdo_ipc_GateMP_RemoteSystemProxy_getReservedMask__E
86d22520   ti_sdo_ipc_GateMP_RemoteSystemProxy_sharedMemReq__E
86d22540   ti_sdo_ipc_GateMP_attach__E
86d22560   ti_sdo_ipc_GateMP_getRegion0ReservedSize__E
86d22580   ti_sdo_ipc_GateMP_getSharedAddr__E
86d225a0   ti_sdo_ipc_GateMP_getSharedAddr__F
86d225c0   ti_sdo_ipc_GateMP_start__E
86d225e0   ti_sdo_ipc_ListMP_Params__init__S
86d22600   ti_sdo_ipc_MessageQ_Module_startup__E
86d22620   ti_sdo_ipc_MessageQ_Object__get__S
86d22640   ti_sdo_ipc_MessageQ_Params__init__S
86d22660   ti_sdo_ipc_MessageQ_SetupTransportProxy_attach__E
86d22680   ti_sdo_ipc_MessageQ_SetupTransportProxy_isRegistered__E
86d226a0   ti_sdo_ipc_MessageQ_SetupTransportProxy_sharedMemReq__E
86d226c0   ti_sdo_ipc_MessageQ_registerTransport__E
86d226e0   ti_sdo_ipc_MessageQ_unregisterTransport__E
86d22700   ti_sdo_ipc_Notify_Module_GateProxy_enter__E
86d22720   ti_sdo_ipc_Notify_Module_GateProxy_leave__E
86d22740   ti_sdo_ipc_Notify_Module_startup__E
86d22760   ti_sdo_ipc_Notify_SetupProxy_attach__E
86d22780   ti_sdo_ipc_Notify_SetupProxy_numIntLines__E
86d227a0   ti_sdo_ipc_Notify_SetupProxy_sharedMemReq__E
86d227c0   ti_sdo_ipc_Notify_exec__E
86d227e0   ti_sdo_ipc_SharedRegion_attach__E
86d22800   ti_sdo_ipc_SharedRegion_clearReservedMemory__E
86d22820   ti_sdo_ipc_SharedRegion_reserveMemory__E
86d22840   ti_sdo_ipc_SharedRegion_start__E
86d22860   ti_sdo_ipc_gates_GateHWSpinlock_Module_startup__E
86d22880   ti_sdo_ipc_gates_GateHWSpinlock_Params__init__S
86d228a0   ti_sdo_ipc_gates_GateHWSpinlock_getReservedMask__E
86d228c0   ti_sdo_ipc_gates_GateHWSpinlock_query__E
86d228e0   ti_sdo_ipc_gates_GateHWSpinlock_query__F
86d22900   ti_sdo_ipc_gates_GateHWSpinlock_sharedMemReq__E
86d22920   ti_sdo_ipc_gates_GateMPSupportNull_Instance_init__F
86d22940   ti_sdo_ipc_gates_GateMPSupportNull_Params__init__S
86d22960   ti_sdo_ipc_gates_GateMPSupportNull_getReservedMask__E
86d22980   ti_sdo_ipc_gates_GateMPSupportNull_query__E
86d229a0   ti_sdo_ipc_gates_GateMPSupportNull_query__F
86d229c0   ti_sdo_ipc_gates_GateMPSupportNull_sharedMemReq__E
86d229e0   ti_sdo_ipc_gates_GatePeterson_Params__init__S
86d22a00   ti_sdo_ipc_gates_GatePeterson_getReservedMask__E
86d22a20   ti_sdo_ipc_gates_GatePeterson_query__E
86d22a40   ti_sdo_ipc_gates_GatePeterson_query__F
86d22a60   ti_sdo_ipc_heaps_HeapBufMP_Params__init__S
86d22a80   ti_sdo_ipc_heaps_HeapBufMP_getStats__E
86d22aa0   ti_sdo_ipc_heaps_HeapBufMP_isBlocking__E
86d22ac0   ti_sdo_ipc_heaps_HeapBufMP_isBlocking__F
86d22ae0   ti_sdo_ipc_heaps_HeapMemMP_Params__init__S
86d22b00   ti_sdo_ipc_heaps_HeapMemMP_isBlocking__E
86d22b20   ti_sdo_ipc_heaps_HeapMemMP_isBlocking__F
86d22b40   ti_sdo_ipc_notifyDrivers_NotifyDriverShm_InterruptProxy_intClear__E
86d22b60   ti_sdo_ipc_notifyDrivers_NotifyDriverShm_InterruptProxy_intDisable__E
86d22b80   ti_sdo_ipc_notifyDrivers_NotifyDriverShm_InterruptProxy_intEnable__E
86d22ba0   ti_sdo_ipc_notifyDrivers_NotifyDriverShm_InterruptProxy_intRegister__E
86d22bc0   ti_sdo_ipc_notifyDrivers_NotifyDriverShm_InterruptProxy_intSend__E
86d22be0   ti_sdo_ipc_notifyDrivers_NotifyDriverShm_InterruptProxy_intUnregister__E
86d22c00   ti_sdo_ipc_notifyDrivers_NotifyDriverShm_Params__init__S
86d22c20   ti_sdo_ipc_notifyDrivers_NotifyDriverShm_disable__E
86d22c40   ti_sdo_ipc_notifyDrivers_NotifyDriverShm_enable__E
86d22c60   ti_sdo_ipc_notifyDrivers_NotifyDriverShm_sharedMemReq__E
86d22c80   ti_sdo_ipc_nsremote_NameServerRemoteNotify_Object__first__S
86d22ca0   ti_sdo_ipc_nsremote_NameServerRemoteNotify_Object__next__S
86d22cc0   ti_sdo_ipc_nsremote_NameServerRemoteNotify_Params__init__S
86d22ce0   ti_sdo_ipc_nsremote_NameServerRemoteNotify_cbFxn__I
86d22d00   ti_sdo_ipc_nsremote_NameServerRemoteNotify_get__E
86d22d20   ti_sdo_ipc_transports_TransportShmSetup_isRegistered__E
86d22d40   ti_sdo_ipc_transports_TransportShm_Params__init__S
86d22d60   ti_sdo_ipc_transports_TransportShm_control__E
86d22d80   ti_sdo_ipc_transports_TransportShm_getStatus__E
86d22da0   ti_sdo_ipc_transports_TransportShm_notifyFxn__I
86d22dc0   ti_sdo_ipc_transports_TransportShm_openByAddr__E
86d22de0   ti_sdo_ipc_transports_TransportShm_setErrFxn__E
86d22e00   ti_sdo_ipc_transports_TransportShm_setErrFxn__F
86d22e20   ti_sdo_ipc_transports_TransportShm_sharedMemReq__E
86d22e40   ti_sdo_utils_List_Instance_init__F
86d22e60   ti_sdo_utils_List_Object__destruct__S
86d22e80   ti_sdo_utils_List_Object__get__S
86d22ea0   ti_sdo_utils_MultiProc_getClusterId__E
86d22ec0   ti_sdo_utils_MultiProc_getClusterId__F
86d22ee0   ti_sdo_utils_NameServer_Module__startupDone__S
86d22f00   ti_sdo_utils_NameServer_Module_startup__E
86d22f20   ti_sdo_utils_NameServer_Object__first__S
86d22f40   ti_sdo_utils_NameServer_Object__next__S
86d22f60   ti_sdo_utils_NameServer_SetupProxy_attach__E
86d22f80   ti_sdo_utils_NameServer_SetupProxy_sharedMemReq__E
86d22fa0   ti_sysbios_BIOS_RtsGateProxy_enter__E
86d22fc0   ti_sysbios_BIOS_RtsGateProxy_leave__E
86d22fe0   ti_sysbios_BIOS_getCpuFreq__E
86d23000   ti_sysbios_BIOS_getThreadType__E
86d23020   ti_sysbios_BIOS_setThreadType__E
86d23040   ti_sysbios_BIOS_start__E
86d23060   ti_sysbios_family_c62_TaskSupport_Module__startupDone__S
86d23080   ti_sysbios_family_c62_TaskSupport_getStackAlignment__E
86d230a0   ti_sysbios_family_c64p_Cache_Module_startup__E
86d230c0   ti_sysbios_family_c64p_EventCombiner_Module_startup__E
86d230e0   ti_sysbios_family_c64p_EventCombiner_disableEvent__E
86d23100   ti_sysbios_family_c64p_EventCombiner_dispatchPlug__E
86d23120   ti_sysbios_family_c64p_EventCombiner_dispatch__E
86d23140   ti_sysbios_family_c64p_EventCombiner_enableEvent__E
86d23160   ti_sysbios_family_c64p_EventCombiner_unused__E
86d23180   ti_sysbios_family_c64p_Exception_Module_startup__E
86d231a0   ti_sysbios_family_c64p_Hwi_Module__startupDone__S
86d231c0   ti_sysbios_family_c64p_Hwi_Module_startup__E
86d231e0   ti_sysbios_family_c64p_Hwi_Params__init__S
86d23200   ti_sysbios_family_c64p_Hwi_clearInterrupt__E
86d23220   ti_sysbios_family_c64p_Hwi_getHandle__E
86d23240   ti_sysbios_family_c64p_Hwi_startup__E
86d23260   ti_sysbios_family_c64p_Hwi_switchFromBootStack__E
86d23280   ti_sysbios_family_c64p_Hwi_unPluggedInterrupt__I
86d232a0   ti_sysbios_family_c64p_TimestampProvider_Module_startup__E
86d232c0   ti_sysbios_family_c64p_TimestampProvider_Module_startup__F
86d232e0   ti_sysbios_family_c64p_TimestampProvider_get32__E
86d23300   ti_sysbios_family_c64p_TimestampProvider_getFreq__E
86d23320   ti_sysbios_family_c64p_ti81xx_TimerSupport_Module__startupDone__S
86d23340   ti_sysbios_family_c64p_ti81xx_TimerSupport_Module_startup__E
86d23360   ti_sysbios_family_c64p_ti81xx_TimerSupport_Module_startup__F
86d23380   ti_sysbios_family_c64p_ti81xx_TimerSupport_enable__E
86d233a0   ti_sysbios_gates_GateAll_Instance_init__F
86d233c0   ti_sysbios_gates_GateAll_query__E
86d233e0   ti_sysbios_gates_GateAll_query__F
86d23400   ti_sysbios_gates_GateHwi_Instance_init__F
86d23420   ti_sysbios_gates_GateHwi_enter__E
86d23440   ti_sysbios_gates_GateHwi_leave__E
86d23460   ti_sysbios_gates_GateHwi_query__E
86d23480   ti_sysbios_gates_GateHwi_query__F
86d234a0   ti_sysbios_gates_GateMutexPri_Instance_finalize__F
86d234c0   ti_sysbios_gates_GateMutexPri_query__E
86d234e0   ti_sysbios_gates_GateMutexPri_query__F
86d23500   ti_sysbios_gates_GateMutex_Instance_finalize__F
86d23520   ti_sysbios_gates_GateMutex_query__E
86d23540   ti_sysbios_gates_GateMutex_query__F
86d23560   ti_sysbios_gates_GateSwi_Instance_init__F
86d23580   ti_sysbios_gates_GateSwi_query__E
86d235a0   ti_sysbios_gates_GateSwi_query__F
86d235c0   ti_sysbios_hal_Cache_CacheProxy_inv__E
86d235e0   ti_sysbios_hal_Cache_CacheProxy_wbInv__E
86d23600   ti_sysbios_hal_Cache_inv__E
86d23620   ti_sysbios_hal_Cache_wbInv__E
86d23640   ti_sysbios_hal_Hwi_HwiProxy_Module__startupDone__S
86d23660   ti_sysbios_hal_Hwi_HwiProxy_clearInterrupt__E
86d23680   ti_sysbios_hal_Hwi_HwiProxy_disableInterrupt__E
86d236a0   ti_sysbios_hal_Hwi_HwiProxy_enableInterrupt__E
86d236c0   ti_sysbios_hal_Hwi_HwiProxy_startup__E
86d236e0   ti_sysbios_hal_Hwi_HwiProxy_switchFromBootStack__E
86d23700   ti_sysbios_hal_Hwi_Module_startup__E
86d23720   ti_sysbios_hal_Hwi_Module_startup__F
86d23740   ti_sysbios_hal_Hwi_startup__E
86d23760   ti_sysbios_hal_Timer_Module__startupDone__S
86d23780   ti_sysbios_hal_Timer_Module_startup__E
86d237a0   ti_sysbios_hal_Timer_Module_startup__F
86d237c0   ti_sysbios_hal_Timer_TimerProxy_Module__startupDone__S
86d237e0   ti_sysbios_hal_Timer_TimerProxy_getPeriod__E
86d23800   ti_sysbios_hal_Timer_TimerProxy_startup__E
86d23820   ti_sysbios_hal_Timer_startup__E
86d23840   ti_sysbios_heaps_HeapMem_Module_GateProxy_enter__E
86d23860   ti_sysbios_heaps_HeapMem_Module_GateProxy_leave__E
86d23880   ti_sysbios_heaps_HeapMem_Module_GateProxy_query__E
86d238a0   ti_sysbios_heaps_HeapMem_isBlocking__E
86d238c0   ti_sysbios_knl_Clock_Module_startup__E
86d238e0   ti_sysbios_knl_Clock_Params__init__S
86d23900   ti_sysbios_knl_Clock_getTicks__E
86d23920   ti_sysbios_knl_Idle_loop__E
86d23940   ti_sysbios_knl_Queue_Instance_init__F
86d23960   ti_sysbios_knl_Queue_Object__destruct__S
86d23980   ti_sysbios_knl_Queue_Object__get__S
86d239a0   ti_sysbios_knl_Queue_empty__E
86d239c0   ti_sysbios_knl_Semaphore_Instance_finalize__F
86d239e0   ti_sysbios_knl_Semaphore_Params__init__S
86d23a00   ti_sysbios_knl_Swi_Module_startup__E
86d23a20   ti_sysbios_knl_Swi_Params__init__S
86d23a40   ti_sysbios_knl_Swi_disable__E
86d23a60   ti_sysbios_knl_Task_Module_startup__E
86d23a80   ti_sysbios_knl_Task_Params__init__S
86d23aa0   ti_sysbios_knl_Task_SupportProxy_Module__startupDone__S
86d23ac0   ti_sysbios_knl_Task_SupportProxy_getStackAlignment__E
86d23ae0   ti_sysbios_knl_Task_SupportProxy_start__E
86d23b00   ti_sysbios_knl_Task_SupportProxy_swap__E
86d23b20   ti_sysbios_knl_Task_disable__E
86d23b40   ti_sysbios_knl_Task_enable__E
86d23b60   ti_sysbios_knl_Task_getPri__E
86d23b80   ti_sysbios_knl_Task_self__E
86d23ba0   ti_sysbios_knl_Task_startup__E
86d23bc0   ti_sysbios_syncs_SyncSem_query__E
86d23be0   ti_sysbios_syncs_SyncSem_query__F
86d23c00   ti_sysbios_syncs_SyncSem_signal__E
86d23c20   ti_sysbios_syncs_SyncSem_signal__F
86d23c40   ti_sysbios_syncs_SyncSem_wait__E
86d23c60   ti_sysbios_timers_dmtimer_Timer_Module__startupDone__S
86d23c80   ti_sysbios_timers_dmtimer_Timer_Module_startup__E
86d23ca0   ti_sysbios_timers_dmtimer_Timer_TimerSupportProxy_Module__startupDone__S
86d23cc0   ti_sysbios_timers_dmtimer_Timer_TimerSupportProxy_enable__E
86d23ce0   ti_sysbios_utils_Load_taskRegHook__E
86d23d00   ti_sysbios_xdcruntime_GateThreadSupport_Instance_finalize__F
86d23d20   ti_sysbios_xdcruntime_GateThreadSupport_enter__E
86d23d40   ti_sysbios_xdcruntime_GateThreadSupport_enter__F
86d23d60   ti_sysbios_xdcruntime_GateThreadSupport_leave__E
86d23d80   ti_sysbios_xdcruntime_GateThreadSupport_query__E
86d23da0   ti_sysbios_xdcruntime_GateThreadSupport_query__F
86d23dc0   xdc_runtime_Error_check__E
86d23de0   xdc_runtime_Error_init__E
86d23e00   xdc_runtime_Error_print__E
86d23e20   xdc_runtime_Error_raiseX__E
86d23e40   xdc_runtime_GateNull_enter__E
86d23e60   xdc_runtime_GateNull_enter__F
86d23e80   xdc_runtime_GateNull_leave__E
86d23ea0   xdc_runtime_GateNull_leave__F
86d23ec0   xdc_runtime_GateNull_query__E
86d23ee0   xdc_runtime_GateNull_query__F
86d23f00   xdc_runtime_Gate_enterSystem__E
86d23f20   xdc_runtime_Gate_enterSystem__F
86d23f40   xdc_runtime_Gate_leaveSystem__E
86d23f60   xdc_runtime_Gate_leaveSystem__F
86d23fc0   xdc_runtime_Memory_HeapProxy_alloc__E
86d23fe0   xdc_runtime_Memory_HeapProxy_free__E
86d24000   xdc_runtime_Memory_alloc__E
86d24020   xdc_runtime_Memory_calloc__E
86d24040   xdc_runtime_Memory_free__E
86d24060   xdc_runtime_Memory_getMaxDefaultTypeAlign__E
86d24080   xdc_runtime_Memory_getMaxDefaultTypeAlign__F
86d240a0   xdc_runtime_Memory_valloc__E
86d240c0   xdc_runtime_Registry_findById__E
86d240e0   xdc_runtime_Startup_Module__startupDone__S
86d24100   xdc_runtime_Startup_exec__E
86d24120   xdc_runtime_Startup_exec__I
86d24140   xdc_runtime_Startup_reset__I
86d24160   xdc_runtime_SysMin_Module_startup__E
86d24180   xdc_runtime_SysMin_abort__E
86d241a0   xdc_runtime_SysMin_exit__E
86d241c0   xdc_runtime_SysMin_putch__E
86d241e0   xdc_runtime_SysMin_ready__E
86d24200   xdc_runtime_SysMin_ready__F
86d24220   xdc_runtime_System_Module_GateProxy_enter__E
86d24240   xdc_runtime_System_Module_GateProxy_leave__E
86d24260   xdc_runtime_System_Module_startup__E
86d24280   xdc_runtime_System_Module_startup__F
86d242a0   xdc_runtime_System_SupportProxy_abort__E
86d242c0   xdc_runtime_System_SupportProxy_exit__E
86d242e0   xdc_runtime_System_SupportProxy_putch__E
86d24300   xdc_runtime_System_SupportProxy_ready__E
86d24320   xdc_runtime_System_abort__E
86d24340   xdc_runtime_System_atexit__E
86d24360   xdc_runtime_System_exit__E
86d24380   xdc_runtime_System_exit__F
86d243a0   xdc_runtime_System_lastFxn__I
86d243c0   xdc_runtime_System_sprintf_va__F
86d243e0   xdc_runtime_System_vsprintf__E
86d24400   xdc_runtime_System_vsprintf__F
86d24420   xdc_runtime_Text_cordText__E
86d24440   xdc_runtime_Text_putLab__E
86d24460   xdc_runtime_Text_putSite__E
86d24480   xdc_runtime_Text_ropeText__E
86d244a0   xdc_runtime_Text_visitRope__I
86d244c0   xdc_runtime_Timestamp_SupportProxy_get32__E
86d244e0   xdc_runtime_Timestamp_SupportProxy_getFreq__E
86d24500   xdc_runtime_Timestamp_get32__E
86d24520   xdc_runtime_Timestamp_get32__F
86d24540   xdc_runtime_Timestamp_getFreq__E
86d24560   xdc_runtime_Timestamp_getFreq__F
86d24580   xdc_runtime_knl_GateThread_Module__startupDone__S
86d245a0   xdc_runtime_knl_GateThread_Proxy_Object__create__S
86d245c0   xdc_runtime_knl_GateThread_Proxy_Object__delete__S
86d245e0   xdc_runtime_knl_GateThread_Proxy_enter__E
86d24600   xdc_runtime_knl_GateThread_Proxy_leave__E
86d24620   xdc_runtime_knl_GateThread_Proxy_query__E
86d24640   xdc_runtime_knl_GateThread_enter__E
86d24660   xdc_runtime_knl_GateThread_enter__F
86d24680   xdc_runtime_knl_GateThread_leave__E
86d246a0   xdc_runtime_knl_GateThread_leave__F
86d246c0   xdc_runtime_knl_GateThread_query__E
86d246e0   xdc_runtime_knl_GateThread_query__F
86d24700   yuv_car_yuv
86d2dd00   yuv_warn_yuv
86d33040   yuv_title_adv_yuv
86d36c28   yuv_title_colab_yuv
86d3a810   yuv_title_menu_yuv
86d3e3f8   yuv_title_param_yuv
86d41fe0   yuv_title_upg_yuv
86d45bc8   yuv_colab_wp_h_yuv
86d48a60   yuv_colab_wp_yuv
86d4b8f8   yuv_notice2_yuv
86d4e328   yuv_menu_adv_h_yuv
86d504a0   yuv_menu_adv_yuv
86d52618   yuv_menu_cola_h_yuv
86d54790   yuv_menu_cola_yuv
86d56908   yuv_menu_param_h_yuv
86d58a80   yuv_menu_param_yuv
86d5abf8   yuv_menu_upd_h_yuv
86d5cd70   yuv_menu_upd_yuv
86d5eee8   yuv_back_yuv
86d60de8   yuv_front_yuv
86d62ce8   yuv_left_yuv
86d64be8   yuv_right_yuv
86d66ae8   yuv_ret_err_yuv
86d67e70   yuv_ret_ok_yuv
86d691f8   yuv_tip_yuv
86d6a580   yuv_sep_yuv
86d6b410   edma3GblCfgParams
86d6c248   defInstInitConfig
86d6cf68   yuv_bar_h_yuv
86d6d948   yuv_bar_yuv
86d6eb2c   _ft_end
86d6f330   ti_sdo_ipc_GateMP_Module_State_0_remoteCustom1Gates__A
86d6fb30   ti_sdo_ipc_GateMP_Module__root__V
86d6fb38   ti_sdo_ipc_GateMP_Module__state__V
86d6fb80   ti_sdo_ipc_Ipc_Module__state__V
86d6fb8c   ti_sdo_ipc_ListMP_Module__root__V
86d6fb94   ti_sdo_ipc_ListMP_Module__state__V
86d6fb98   ti_sdo_ipc_MessageQ_Module__root__V
86d6fba0   ti_sdo_ipc_MessageQ_Module__state__V
86d6fbbc   ti_sdo_ipc_Notify_Module__root__V
86d6fbc4   ti_sdo_ipc_Notify_Module__state__V
86d6fbcc   ti_sdo_ipc_SharedRegion_Module__state__V
86d6fbd0   ti_sdo_ipc_family_c6a8149_InterruptDsp_Module__state__V
86d6fbf4   ti_sdo_ipc_gates_GateHWSpinlock_Module__root__V
86d6fbfc   ti_sdo_ipc_gates_GateMPSupportNull_Module__root__V
86d6fc04   ti_sdo_ipc_gates_GatePeterson_Module__root__V
86d6fc0c   ti_sdo_ipc_heaps_HeapBufMP_Module__root__V
86d6fc14   ti_sdo_ipc_heaps_HeapBufMP_Module__state__V
86d6fc18   ti_sdo_ipc_heaps_HeapMemMP_Module__root__V
86d6fc20   ti_sdo_ipc_heaps_HeapMemMP_Module__state__V
86d6fc24   ti_sdo_ipc_notifyDrivers_NotifyDriverShm_Module__root__V
86d6fc2c   ti_sdo_ipc_nsremote_NameServerRemoteNotify_Module__root__V
86d6fc34   ti_sdo_ipc_transports_TransportShm_Module__root__V
86d6fc3c   ti_sdo_ipc_transports_TransportShmSetup_Module__state__V
86d6fc40   ti_sdo_utils_List_Module__root__V
86d6fc48   ti_sdo_utils_MultiProc_Module__state__V
86d6fc4c   ti_sdo_utils_NameServer_Module__root__V
86d6fc54   ti_sdo_utils_NameServer_Module__state__V
86d6fc5c   ti_sdo_utils_NameServerRemoteNull_Module__root__V
86d6fc64   ti_sysbios_BIOS_Module__state__V
86d6fc84   ti_sysbios_family_c64p_Cache_Module__state__V
86d6fc88   ti_sysbios_family_c64p_EventCombiner_Module__state__V
86d70088   ti_sysbios_family_c64p_Exception_Module__state__V
86d700b4   ti_sysbios_family_c64p_Hwi_Module__root__V
86d700bc   ti_sysbios_family_c64p_Hwi_Module__state__V
86d70124   ti_sysbios_gates_GateAll_Module__root__V
86d7012c   ti_sysbios_gates_GateHwi_Module__root__V
86d70134   ti_sysbios_gates_GateMutex_Module__root__V
86d7013c   ti_sysbios_gates_GateMutexPri_Module__root__V
86d70144   ti_sysbios_gates_GateSwi_Module__root__V
86d7014c   ti_sysbios_gates_GateTask_Module__root__V
86d70154   ti_sysbios_hal_Hwi_Module__root__V
86d7015c   ti_sysbios_hal_Timer_Module__root__V
86d70164   ti_sysbios_heaps_HeapMem_Module__root__V
86d7016c   ti_sysbios_knl_Clock_Module__root__V
86d70174   ti_sysbios_knl_Clock_Module__state__V
86d7019c   ti_sysbios_knl_Event_Module__root__V
86d701a4   ti_sysbios_knl_Queue_Module__root__V
86d701ac   ti_sysbios_knl_Semaphore_Module__root__V
86d701b4   ti_sysbios_knl_Swi_Module__root__V
86d701bc   ti_sysbios_knl_Swi_Module__state__V
86d701d8   ti_sysbios_knl_Task_Module__root__V
86d701e0   ti_sysbios_knl_Task_Module__state__V
86d70228   ti_sysbios_syncs_SyncSem_Module__root__V
86d70230   ti_sysbios_timers_dmtimer_Timer_Module__root__V
86d70238   ti_sysbios_timers_dmtimer_Timer_Module__state__V
86d70250   ti_sysbios_utils_Load_Module__state__V
86d702cc   ti_sysbios_xdcruntime_GateThreadSupport_Module__root__V
86d702d4   xdc_runtime_Error_Module__state__V
86d702d8   xdc_runtime_GateNull_Module__root__V
86d702e0   xdc_runtime_Memory_Module__state__V
86d702e4   xdc_runtime_Registry_Module__state__V
86d702ec   xdc_runtime_Startup_Module__state__V
86d702f4   xdc_runtime_SysMin_Module__state__V
86d70300   xdc_runtime_System_Module__state__V
86d7030c   xdc_runtime_Text_Module__state__V
86d70314   xdc_runtime_knl_GateThread_Module__root__V
86d7031c   __xdc__init__addr
86d70320   sampleXbarChanInitConfig
86d70b00   sampleInstInitConfig
86d71040   fThetaLUTin
86d71548   TTELUTin
86d71980   VendorLUTin
86d71db4   __errno
86d71db4   errno
86d71db8   HSAELUTin
86d721b8   yuv_g3_yuv
86d725a0   yuv_g4_yuv
86d72988   yuv_g5_yuv
86d72d70   yuv_g6_yuv
86d73158   yuv_g7_yuv
86d73540   yuv_g8_yuv
86d73928   yuv_g9_yuv
86d73d10   yuv_red0_yuv
86d740f8   yuv_red1_yuv
86d744e0   yuv_red2_yuv
86d748c8   yuv_red3_yuv
86d74cb0   yuv_red4_yuv
86d75098   yuv_red5_yuv
86d75480   yuv_red6_yuv
86d75868   yuv_red7_yuv
86d75c50   yuv_red8_yuv
86d76038   yuv_red9_yuv
86d76420   sampleEdma3GblCfgParams
86d76978   sinatanLUT
86d76d78   yuv_gdot_yuv
86d76f70   yuv_reddot_yuv
86d77168   _ftable
86d77348   aViewRegion
86d77480   ti_sdo_utils_NameServer_Object__table__V
86d77598   ti_sdo_ipc_GateMP_Module_State_0_remoteSystemGates__A
86d77698   ti_sysbios_knl_Task_Object__table__V
86d77730   TSK_idle
86d77820   persmatin
86d778b0   ti_sysbios_knl_Swi_Module_State_0_readyQ__A
86d77930   ti_sysbios_knl_Task_Module_State_0_readyQ__A
86d77a28   ti_sysbios_family_c64p_Hwi_Object__table__V
86d77aa0   sharedRegionConfigTable
86d77b08   ti_sysbios_timers_dmtimer_Timer_Object__table__V
86d77bb8   ti_sdo_ipc_Ipc_Module_State_0_procEntry__A
86d77c08   ti_sdo_ipc_SharedRegion_Module_State_0_regions__A
86d77cd0   ti_sysbios_gates_GateMutex_Object__table__V
86d77d10   ti_sysbios_timers_dmtimer_Timer_Module_State_0_device__A
86d77d50   ti_sysbios_knl_Swi_Object__table__V
86d77e90   ccXferCompInt
86d77eb0   hwIntTcErr
86d77ed0   ptrEdma3TcIsrHandler
86d77ef0   tcErrorInt
86d77f10   ti_sdo_ipc_MessageQ_Module_State_0_transports__A
86d77f30   xdc_runtime_System_Module_State_0_atexitHandlers__A
86d77f50   ti_sysbios_gates_GateMutexPri_Object__table__V
86d77f68   ti_sysbios_heaps_HeapMem_Object__table__V
86d77f98   ti_sysbios_timers_dmtimer_Timer_Module_State_0_handles__A
86d77fb0   ti_sdo_ipc_transports_TransportShmSetup_Module_State_0_handles__A
86d77fc0   ti_sysbios_gates_GateAll_Object__table__V
86d77fd0   _cleanup_ptr
86d77fd4   _dtors_ptr
86d77fd8   __TI_enable_exit_profile_output
86d77fe0   ti_sysbios_gates_GateSwi_Object__table__V
86d77fec   _lock
86d77ff0   _unlock
86d77ff8   ti_sdo_ipc_MessageQ_Module_State_0_heaps__A
86d78000   ti_sysbios_hal_Hwi_Object__table__V
86d78008   ti_sysbios_hal_Timer_Object__table__V
86d78010   ccErrorInt
86d78018   hwIntCcErr
86d78020   hwIntXferComp
86d78028   numEdma3Tc
86d78030   semHandle
86d78038   ti_sdo_ipc_GateMP_Module_State_0_remoteCustom2Gates__A
86d78040   ti_sdo_ipc_Notify_Module_State_0_notifyHandles_0__A
86d78048   ti_sdo_ipc_Notify_Module_State_0_notifyHandles_1__A
86d78050   ti_sdo_ipc_Notify_Module_State_0_notifyHandles_2__A
86d78058   ti_sdo_ipc_Notify_Module_State_0_notifyHandles_3__A
86d78060   ti_sysbios_gates_GateHwi_Object__table__V
86d78068   ti_sysbios_knl_Task_Module_State_0_idleTask__A
86d78070   ti_sysbios_utils_Load_Module_State_0_runningTask__A
86d78078   ti_sysbios_utils_Load_Module_State_0_taskStartTime__A
86d78080   xdc_runtime_GateNull_Object__table__V
86d78088   xdc_runtime_Text_charTab__A
86d7ab08   yuv_notice1_yuv
86d7d538   yuv_menu_colab_clb_h_yuv
86d7f6b0   yuv_menu_colab_clb_yuv
86d81828   yuv_menu_photo_h_yuv
86d82d28   yuv_menu_photo_yuv
86d854b0   yuv_m1_yuv
86d85bb8   yuv_m2_yuv
86d866b4   ti_sdo_ipc_GateMP_A_invalidClose__C
86d866b8   yuv_g0_yuv
86d86aa0   yuv_g1_yuv
86d86e88   yuv_g2_yuv
86d8806c   ti_sdo_ipc_GateMP_A_invalidDelete__C
86d88070   xdc_runtime_Text_nodeTab__A
86d88374   ti_sdo_ipc_GateMP_E_gateUnavailable__C
86d88620   _ctypes_
86d88ebc   ti_sdo_ipc_GateMP_E_localGate__C
86d88ec0   xdc_runtime_Startup_sfxnTab__A
86d88fc4   ti_sysbios_knl_Task_Object__PARAMS__C
86d89038   ti_sdo_ipc_heaps_HeapBufMP_Object__PARAMS__C
86d89070   ti_sdo_ipc_notifyDrivers_NotifyDriverShm_Module__FXNS__C
86d890a8   ti_sdo_ipc_GateMP_Object__PARAMS__C
86d890dc   ti_sdo_ipc_notifyDrivers_NotifyDriverShm_Object__PARAMS__C
86d89110   ti_sdo_ipc_heaps_HeapMemMP_Object__PARAMS__C
86d89140   ti_sysbios_family_c64p_Hwi_Object__PARAMS__C
86d8919c   ti_sdo_ipc_ListMP_Object__PARAMS__C
86d891c8   ti_sdo_ipc_gates_GateHWSpinlock_Module__FXNS__C
86d891f4   ti_sdo_ipc_gates_GateMPSupportNull_Module__FXNS__C
86d89220   ti_sdo_ipc_gates_GatePeterson_Module__FXNS__C
86d8924c   ti_sdo_ipc_heaps_HeapBufMP_Module__FXNS__C
86d89274   ti_sdo_ipc_heaps_HeapMemMP_Module__FXNS__C
86d8929c   ti_sdo_ipc_nsremote_NameServerRemoteNotify_Module__FXNS__C
86d892c4   ti_sdo_ipc_transports_TransportShm_Module__FXNS__C
86d892ec   ti_sdo_ipc_transports_TransportShm_Object__PARAMS__C
86d89314   ti_sysbios_heaps_HeapMem_Module__FXNS__C
86d8933c   ti_sysbios_knl_Swi_Object__PARAMS__C
86d8938c   ti_sdo_ipc_gates_GateHWSpinlock_Object__PARAMS__C
86d893b0   ti_sdo_ipc_gates_GateMPSupportNull_Object__PARAMS__C
86d893d4   ti_sdo_ipc_gates_GatePeterson_Object__PARAMS__C
86d8941c   ti_sysbios_gates_GateAll_Module__FXNS__C
86d89440   ti_sysbios_gates_GateHwi_Module__FXNS__C
86d89464   ti_sysbios_gates_GateMutexPri_Module__FXNS__C
86d89488   ti_sysbios_gates_GateMutex_Module__FXNS__C
86d894ac   ti_sysbios_gates_GateSwi_Module__FXNS__C
86d894d0   ti_sysbios_heaps_HeapMem_Object__PARAMS__C
86d894f4   ti_sysbios_knl_Clock_Object__PARAMS__C
86d89518   ti_sysbios_knl_Semaphore_Object__PARAMS__C
86d8953c   ti_sysbios_syncs_SyncSem_Module__FXNS__C
86d89560   xdc_runtime_GateNull_Module__FXNS__C
86d89584   ti_sdo_ipc_GateMP_LM_create__C
86d89588   xdc_runtime_Startup_sfxnRts__A
86d895ac   xdc_runtime_knl_GateThread_Module__FXNS__C
86d89614   ti_sdo_ipc_GateMP_Object__DESC__C
86d89634   ti_sdo_ipc_ListMP_Object__DESC__C
86d89654   ti_sdo_ipc_MessageQ_Object__DESC__C
86d89674   ti_sdo_ipc_Notify_Object__DESC__C
86d89694   ti_sdo_ipc_gates_GateHWSpinlock_Object__DESC__C
86d896b4   ti_sdo_ipc_gates_GateMPSupportNull_Object__DESC__C
86d896d4   ti_sdo_ipc_gates_GatePeterson_Object__DESC__C
86d896f4   ti_sdo_ipc_heaps_HeapBufMP_Object__DESC__C
86d89714   ti_sdo_ipc_heaps_HeapMemMP_Object__DESC__C
86d89734   ti_sdo_ipc_notifyDrivers_NotifyDriverShm_Object__DESC__C
86d89754   ti_sdo_ipc_nsremote_NameServerRemoteNotify_Object__DESC__C
86d89774   ti_sdo_ipc_nsremote_NameServerRemoteNotify_Object__PARAMS__C
86d89794   ti_sdo_ipc_transports_TransportShm_Object__DESC__C
86d897b4   ti_sdo_utils_List_Object__DESC__C
86d897d4   ti_sysbios_family_c64p_Hwi_Object__DESC__C
86d897f4   ti_sysbios_gates_GateAll_Object__DESC__C
86d89814   ti_sysbios_gates_GateHwi_Object__DESC__C
86d89834   ti_sysbios_gates_GateMutexPri_Object__DESC__C
86d89854   ti_sysbios_gates_GateMutex_Object__DESC__C
86d89874   ti_sysbios_gates_GateSwi_Object__DESC__C
86d89894   ti_sysbios_heaps_HeapMem_Object__DESC__C
86d898b4   ti_sysbios_knl_Clock_Object__DESC__C
86d898d4   ti_sysbios_knl_Queue_Object__DESC__C
86d898f4   ti_sysbios_knl_Semaphore_Object__DESC__C
86d89914   ti_sysbios_knl_Swi_Object__DESC__C
86d89934   ti_sysbios_knl_Task_Object__DESC__C
86d89954   ti_sysbios_syncs_SyncSem_Object__DESC__C
86d89974   ti_sysbios_xdcruntime_GateThreadSupport_Object__DESC__C
86d89994   xdc_runtime_GateNull_Object__DESC__C
86d899b4   xdc_runtime_knl_GateThread_Object__DESC__C
86d899d4   ti_sdo_ipc_MessageQ_Object__PARAMS__C
86d899f0   ti_sysbios_syncs_SyncSem_Object__PARAMS__C
86d89a28   ti_sdo_ipc_Notify_Object__PARAMS__C
86d89a40   ti_sdo_utils_List_Object__PARAMS__C
86d89a58   ti_sysbios_gates_GateAll_Object__PARAMS__C
86d89a70   ti_sysbios_gates_GateHwi_Object__PARAMS__C
86d89a88   ti_sysbios_gates_GateMutexPri_Object__PARAMS__C
86d89aa0   ti_sysbios_gates_GateMutex_Object__PARAMS__C
86d89ab8   ti_sysbios_gates_GateSwi_Object__PARAMS__C
86d89ad0   ti_sysbios_knl_Queue_Object__PARAMS__C
86d89ae8   ti_sysbios_knl_Swi_hooks__A
86d89b00   ti_sysbios_knl_Task_hooks__A
86d89b18   ti_sysbios_xdcruntime_GateThreadSupport_Object__PARAMS__C
86d89b30   xdc_runtime_GateNull_Object__PARAMS__C
86d89b48   xdc_runtime_knl_GateThread_Object__PARAMS__C
86d89b60   ti_sysbios_family_c64p_Hwi_hooks__A
86d89b74   ti_sdo_ipc_GateMP_LM_delete__C
86d89b8c   ti_sdo_ipc_GateMP_LM_enter__C
86d89b90   ti_sdo_utils_MultiProc_nameList__A
86d89ba0   ti_sysbios_family_c64p_EventCombiner_EVTMASK__C
86d89bc0   ti_sdo_ipc_Ipc_userFxns__A
86d89bcc   ti_sysbios_family_c64p_Cache_initSize__C
86d89be0   ti_sdo_ipc_gates_GateHWSpinlock_reservedMaskArr__A
86d89be8   ti_sdo_utils_MultiProc_procIdList__A
86d89bf0   ti_sysbios_family_c64p_Hwi_hooks__C
86d89bf8   ti_sysbios_knl_Idle_coreList__C
86d89c00   ti_sysbios_knl_Idle_funcList__C
86d89c08   ti_sysbios_knl_Swi_hooks__C
86d89c10   ti_sysbios_knl_Task_hooks__C
86d89c18   xdc_runtime_Startup_firstFxns__C
86d89c20   xdc_runtime_Startup_lastFxns__C
86d89c2c   ti_sdo_ipc_GateMP_LM_leave__C
86d89c30   ti_sdo_ipc_GateMP_LM_open__C
86d89c34   ti_sdo_ipc_GateMP_Module__diagsEnabled__C
86d89c38   ti_sdo_ipc_GateMP_Module__diagsIncluded__C
86d89c3c   ti_sdo_ipc_GateMP_Module__diagsMask__C
86d89c40   ti_sdo_ipc_GateMP_Module__loggerFxn2__C
86d89c44   ti_sdo_ipc_GateMP_Module__loggerFxn4__C
86d89c48   ti_sdo_ipc_GateMP_Module__loggerObj__C
86d89c4c   ti_sdo_ipc_Ipc_A_addrNotCacheAligned__C
86d89c50   ti_sdo_ipc_Ipc_A_addrNotInSharedRegion__C
86d89c54   ti_sdo_ipc_Ipc_A_internal__C
86d89c58   ti_sdo_ipc_Ipc_A_invArgument__C
86d89c5c   ti_sdo_ipc_Ipc_A_invParam__C
86d89c60   ti_sdo_ipc_Ipc_A_nullArgument__C
86d89c64   ti_sdo_ipc_Ipc_A_nullPointer__C
86d89c68   ti_sdo_ipc_Ipc_E_internal__C
86d89c6c   ti_sdo_ipc_Ipc_E_nameFailed__C
86d89c70   ti_sdo_ipc_Ipc_E_versionMismatch__C
86d89c74   ti_sdo_ipc_Ipc_Module__diagsEnabled__C
86d89c78   ti_sdo_ipc_Ipc_Module__diagsIncluded__C
86d89c7c   ti_sdo_ipc_Ipc_Module__diagsMask__C
86d89c80   ti_sdo_ipc_Ipc_numUserFxns__C
86d89c84   ti_sdo_ipc_Ipc_procSync__C
86d89c88   ti_sdo_ipc_Ipc_userFxns__C
86d89c8c   ti_sdo_ipc_ListMP_Module__diagsEnabled__C
86d89c90   ti_sdo_ipc_ListMP_Module__diagsIncluded__C
86d89c94   ti_sdo_ipc_ListMP_Module__diagsMask__C
86d89c98   ti_sdo_ipc_MessageQ_A_heapIdInvalid__C
86d89c9c   ti_sdo_ipc_MessageQ_A_invalidMsg__C
86d89ca0   ti_sdo_ipc_MessageQ_A_invalidObj__C
86d89ca4   ti_sdo_ipc_MessageQ_A_invalidParam__C
86d89ca8   ti_sdo_ipc_MessageQ_A_invalidQueueId__C
86d89cac   ti_sdo_ipc_MessageQ_A_procIdInvalid__C
86d89cb0   ti_sdo_ipc_MessageQ_A_unregisteredTransport__C
86d89cb4   ti_sdo_ipc_MessageQ_E_maxReached__C
86d89cb8   ti_sdo_ipc_MessageQ_E_nameFailed__C
86d89cbc   ti_sdo_ipc_MessageQ_Instance_State_highList__O
86d89cc0   ti_sdo_ipc_MessageQ_Instance_State_normalList__O
86d89cc4   ti_sdo_ipc_MessageQ_LM_get__C
86d89cc8   ti_sdo_ipc_MessageQ_LM_putLocal__C
86d89ccc   ti_sdo_ipc_MessageQ_Module__diagsEnabled__C
86d89cd0   ti_sdo_ipc_MessageQ_Module__diagsIncluded__C
86d89cd4   ti_sdo_ipc_MessageQ_Module__diagsMask__C
86d89cd8   ti_sdo_ipc_MessageQ_Module__loggerFxn4__C
86d89cdc   ti_sdo_ipc_MessageQ_Module__loggerObj__C
86d89ce0   ti_sdo_ipc_MessageQ_Object__count__C
86d89ce4   ti_sdo_ipc_MessageQ_Object__heap__C
86d89ce8   ti_sdo_ipc_MessageQ_maxRuntimeEntries__C
86d89cec   ti_sdo_ipc_Notify_A_alreadyRegistered__C
86d89cf0   ti_sdo_ipc_Notify_A_internal__C
86d89cf4   ti_sdo_ipc_Notify_A_invArgument__C
86d89cf8   ti_sdo_ipc_Notify_A_notRegistered__C
86d89cfc   ti_sdo_ipc_Notify_A_reservedEvent__C
86d89d00   ti_sdo_ipc_Notify_Module__diagsEnabled__C
86d89d04   ti_sdo_ipc_Notify_Module__diagsIncluded__C
86d89d08   ti_sdo_ipc_Notify_Module__diagsMask__C
86d89d0c   ti_sdo_ipc_Notify_Module__gateObj__C
86d89d10   ti_sdo_ipc_Notify_Object__heap__C
86d89d14   ti_sdo_ipc_Notify_numEvents__C
86d89d18   ti_sdo_ipc_Notify_sendEventPollCount__C
86d89d1c   ti_sdo_ipc_SharedRegion_A_addrOutOfRange__C
86d89d20   ti_sdo_ipc_SharedRegion_A_alreadyExists__C
86d89d24   ti_sdo_ipc_SharedRegion_A_cacheLineSizeIsZero__C
86d89d28   ti_sdo_ipc_SharedRegion_A_idTooLarge__C
86d89d2c   ti_sdo_ipc_SharedRegion_A_noHeap__C
86d89d30   ti_sdo_ipc_SharedRegion_A_overlap__C
86d89d34   ti_sdo_ipc_SharedRegion_A_region0Clear__C
86d89d38   ti_sdo_ipc_SharedRegion_A_region0Invalid__C
86d89d3c   ti_sdo_ipc_SharedRegion_A_regionInvalid__C
86d89d40   ti_sdo_ipc_SharedRegion_A_reserveTooMuch__C
86d89d44   ti_sdo_ipc_SharedRegion_INVALIDSRPTR__C
86d89d48   ti_sdo_ipc_SharedRegion_Module__diagsEnabled__C
86d89d4c   ti_sdo_ipc_SharedRegion_Module__diagsIncluded__C
86d89d50   ti_sdo_ipc_SharedRegion_Module__diagsMask__C
86d89d54   ti_sdo_ipc_SharedRegion_cacheLineSize__C
86d89d58   ti_sdo_ipc_SharedRegion_numOffsetBits__C
86d89d5c   ti_sdo_ipc_SharedRegion_offsetMask__C
86d89d60   ti_sdo_ipc_family_c6a8149_InterruptDsp_Module__diagsEnabled__C
86d89d64   ti_sdo_ipc_family_c6a8149_InterruptDsp_Module__diagsIncluded__C
86d89d68   ti_sdo_ipc_family_c6a8149_InterruptDsp_Module__diagsMask__C
86d89d6c   ti_sdo_ipc_family_c6a8149_InterruptDsp_eveProcId__C
86d89d70   ti_sdo_ipc_family_c6a8149_InterruptDsp_hostProcId__C
86d89d74   ti_sdo_ipc_family_c6a8149_InterruptDsp_mailboxBaseAddr__C
86d89d78   ti_sdo_ipc_family_c6a8149_InterruptDsp_mailboxEveBaseAddr__C
86d89d7c   ti_sdo_ipc_family_c6a8149_InterruptDsp_videoProcId__C
86d89d80   ti_sdo_ipc_family_c6a8149_InterruptDsp_vpssProcId__C
86d89d84   ti_sdo_ipc_family_c6a8149_NotifySetup_dspIntVectIdForEve__C
86d89d88   ti_sdo_ipc_family_c6a8149_NotifySetup_dspIntVectId__C
86d89d8c   ti_sdo_ipc_family_c6a8149_NotifySetup_dspProcId__C
86d89d90   ti_sdo_ipc_family_c6a8149_NotifySetup_eveIntVectId__C
86d89d94   ti_sdo_ipc_family_c6a8149_NotifySetup_eveProcId__C
86d89d98   ti_sdo_ipc_family_c6a8149_NotifySetup_videoProcId__C
86d89d9c   ti_sdo_ipc_family_c6a8149_NotifySetup_vpssProcId__C
86d89da0   ti_sdo_ipc_gates_GateHWSpinlock_A_invSpinLockNum__C
86d89da4   ti_sdo_ipc_gates_GateHWSpinlock_LM_create__C
86d89da8   ti_sdo_ipc_gates_GateHWSpinlock_LM_enter__C
86d89dac   ti_sdo_ipc_gates_GateHWSpinlock_LM_leave__C
86d89db0   ti_sdo_ipc_gates_GateHWSpinlock_LM_open__C
86d89db4   ti_sdo_ipc_gates_GateHWSpinlock_Module__diagsEnabled__C
86d89db8   ti_sdo_ipc_gates_GateHWSpinlock_Module__diagsIncluded__C
86d89dbc   ti_sdo_ipc_gates_GateHWSpinlock_Module__diagsMask__C
86d89dc0   ti_sdo_ipc_gates_GateHWSpinlock_Module__loggerFxn1__C
86d89dc4   ti_sdo_ipc_gates_GateHWSpinlock_Module__loggerFxn2__C
86d89dc8   ti_sdo_ipc_gates_GateHWSpinlock_Module__loggerObj__C
86d89dcc   ti_sdo_ipc_gates_GateHWSpinlock_baseAddr__C
86d89dd0   ti_sdo_ipc_gates_GateHWSpinlock_numLocks__C
86d89dd4   ti_sdo_ipc_gates_GateHWSpinlock_reservedMaskArr__C
86d89dd8   ti_sdo_ipc_gates_GateMPSupportNull_A_invalidAction__C
86d89ddc   ti_sdo_ipc_gates_GateMPSupportNull_Module__diagsEnabled__C
86d89de0   ti_sdo_ipc_gates_GateMPSupportNull_Module__diagsIncluded__C
86d89de4   ti_sdo_ipc_gates_GateMPSupportNull_Module__diagsMask__C
86d89de8   ti_sdo_ipc_gates_GateMPSupportNull_action__C
86d89dec   ti_sdo_ipc_gates_GatePeterson_E_gateRemotelyOpened__C
86d89df0   ti_sdo_ipc_gates_GatePeterson_Module__diagsEnabled__C
86d89df4   ti_sdo_ipc_gates_GatePeterson_Module__diagsIncluded__C
86d89df8   ti_sdo_ipc_gates_GatePeterson_Module__diagsMask__C
86d89dfc   ti_sdo_ipc_gates_GatePeterson_numInstances__C
86d89e00   ti_sdo_ipc_heaps_HeapBufMP_A_badAlignment__C
86d89e04   ti_sdo_ipc_heaps_HeapBufMP_A_invBlockFreed__C
86d89e08   ti_sdo_ipc_heaps_HeapBufMP_E_alignTooLarge__C
86d89e0c   ti_sdo_ipc_heaps_HeapBufMP_E_exactFail__C
86d89e10   ti_sdo_ipc_heaps_HeapBufMP_E_noBlocksLeft__C
86d89e14   ti_sdo_ipc_heaps_HeapBufMP_E_sizeTooLarge__C
86d89e18   ti_sdo_ipc_heaps_HeapBufMP_Module__diagsEnabled__C
86d89e1c   ti_sdo_ipc_heaps_HeapBufMP_Module__diagsIncluded__C
86d89e20   ti_sdo_ipc_heaps_HeapBufMP_Module__diagsMask__C
86d89e24   ti_sdo_ipc_heaps_HeapMemMP_A_align__C
86d89e28   ti_sdo_ipc_heaps_HeapMemMP_A_heapSize__C
86d89e2c   ti_sdo_ipc_heaps_HeapMemMP_A_invalidFree__C
86d89e30   ti_sdo_ipc_heaps_HeapMemMP_A_zeroBlock__C
86d89e34   ti_sdo_ipc_heaps_HeapMemMP_E_memory__C
86d89e38   ti_sdo_ipc_heaps_HeapMemMP_Module__diagsEnabled__C
86d89e3c   ti_sdo_ipc_heaps_HeapMemMP_Module__diagsIncluded__C
86d89e40   ti_sdo_ipc_heaps_HeapMemMP_Module__diagsMask__C
86d89e44   ti_sdo_ipc_interfaces_IGateMPSupport_Interface__BASE__C
86d89e48   ti_sdo_ipc_interfaces_IMessageQTransport_Interface__BASE__C
86d89e4c   ti_sdo_ipc_interfaces_INotifyDriver_Interface__BASE__C
86d89e50   ti_sdo_ipc_notifyDrivers_NotifyDriverShm_Module__diagsEnabled__C
86d89e54   ti_sdo_ipc_notifyDrivers_NotifyDriverShm_Module__diagsIncluded__C
86d89e58   ti_sdo_ipc_notifyDrivers_NotifyDriverShm_Module__diagsMask__C
86d89e5c   ti_sdo_ipc_notifyDrivers_NotifyDriverShm_Object__heap__C
86d89e60   ti_sdo_ipc_nsremote_NameServerRemoteNotify_A_invalidValueLen__C
86d89e64   ti_sdo_ipc_nsremote_NameServerRemoteNotify_Instance_State_semMultiBlock__O
86d89e68   ti_sdo_ipc_nsremote_NameServerRemoteNotify_Instance_State_semRemoteWait__O
86d89e6c   ti_sdo_ipc_nsremote_NameServerRemoteNotify_Instance_State_swiObj__O
86d89e70   ti_sdo_ipc_nsremote_NameServerRemoteNotify_Module__diagsEnabled__C
86d89e74   ti_sdo_ipc_nsremote_NameServerRemoteNotify_Module__diagsIncluded__C
86d89e78   ti_sdo_ipc_nsremote_NameServerRemoteNotify_Module__diagsMask__C
86d89e7c   ti_sdo_ipc_nsremote_NameServerRemoteNotify_notifyEventId__C
86d89e80   ti_sdo_ipc_nsremote_NameServerRemoteNotify_timeout__C
86d89e84   ti_sdo_ipc_transports_TransportShmSetup_priority__C
86d89e88   ti_sdo_ipc_transports_TransportShm_Instance_State_swiObj__O
86d89e8c   ti_sdo_ipc_transports_TransportShm_Module__diagsEnabled__C
86d89e90   ti_sdo_ipc_transports_TransportShm_Module__diagsIncluded__C
86d89e94   ti_sdo_ipc_transports_TransportShm_Module__diagsMask__C
86d89e98   ti_sdo_utils_INameServerRemote_Interface__BASE__C
86d89e9c   ti_sdo_utils_MultiProc_A_invalidMultiProcId__C
86d89ea0   ti_sdo_utils_MultiProc_Module__diagsEnabled__C
86d89ea4   ti_sdo_utils_MultiProc_Module__diagsIncluded__C
86d89ea8   ti_sdo_utils_MultiProc_Module__diagsMask__C
86d89eac   ti_sdo_utils_MultiProc_nameList__C
86d89eb0   ti_sdo_utils_MultiProc_procIdList__C
86d89eb4   ti_sdo_utils_NameServer_A_invArgument__C
86d89eb8   ti_sdo_utils_NameServer_A_invalidLen__C
86d89ebc   ti_sdo_utils_NameServer_E_entryExists__C
86d89ec0   ti_sdo_utils_NameServer_E_maxReached__C
86d89ec4   ti_sdo_utils_NameServer_Instance_State_freeList__O
86d89ec8   ti_sdo_utils_NameServer_Instance_State_nameList__O
86d89ecc   ti_sdo_utils_NameServer_Module__diagsEnabled__C
86d89ed0   ti_sdo_utils_NameServer_Module__diagsIncluded__C
86d89ed4   ti_sdo_utils_NameServer_Module__diagsMask__C
86d89ed8   ti_sdo_utils_NameServer_Object__count__C
86d89edc   ti_sysbios_BIOS_Module__diagsEnabled__C
86d89ee0   ti_sysbios_BIOS_Module__diagsIncluded__C
86d89ee4   ti_sysbios_BIOS_Module__diagsMask__C
86d89ee8   ti_sysbios_BIOS_installedErrorHook__C
86d89eec   ti_sysbios_family_c62_TaskSupport_stackAlignment__C
86d89ef0   ti_sysbios_family_c64p_Cache_EMIFA_BASE__C
86d89ef4   ti_sysbios_family_c64p_Cache_EMIFA_CFG__C
86d89ef8   ti_sysbios_family_c64p_Cache_EMIFA_LENGTH__C
86d89efc   ti_sysbios_family_c64p_Cache_EMIFB_BASE__C
86d89f00   ti_sysbios_family_c64p_Cache_EMIFB_CFG__C
86d89f04   ti_sysbios_family_c64p_Cache_EMIFB_LENGTH__C
86d89f08   ti_sysbios_family_c64p_Cache_EMIFC_BASE__C
86d89f0c   ti_sysbios_family_c64p_Cache_EMIFC_CFG__C
86d89f10   ti_sysbios_family_c64p_Cache_EMIFC_LENGTH__C
86d89f14   ti_sysbios_family_c64p_Cache_MAR0_31__C
86d89f18   ti_sysbios_family_c64p_Cache_MAR128_159__C
86d89f1c   ti_sysbios_family_c64p_Cache_MAR160_191__C
86d89f20   ti_sysbios_family_c64p_Cache_MAR192_223__C
86d89f24   ti_sysbios_family_c64p_Cache_MAR224_255__C
86d89f28   ti_sysbios_family_c64p_Cache_MAR32_63__C
86d89f2c   ti_sysbios_family_c64p_Cache_MAR64_95__C
86d89f30   ti_sysbios_family_c64p_Cache_MAR96_127__C
86d89f34   ti_sysbios_family_c64p_EventCombiner_E_unpluggedEvent__C
86d89f38   ti_sysbios_family_c64p_Exception_E_exceptionMin__C
86d89f3c   ti_sysbios_family_c64p_Exception_exceptionHook__C
86d89f40   ti_sysbios_family_c64p_Exception_externalHook__C
86d89f44   ti_sysbios_family_c64p_Exception_internalHook__C
86d89f48   ti_sysbios_family_c64p_Exception_nmiHook__C
86d89f4c   ti_sysbios_family_c64p_Hwi_E_alreadyDefined__C
86d89f50   ti_sysbios_family_c64p_Hwi_E_handleNotFound__C
86d89f54   ti_sysbios_family_c64p_Hwi_LD_end__C
86d89f58   ti_sysbios_family_c64p_Hwi_LM_begin__C
86d89f5c   ti_sysbios_family_c64p_Hwi_Module__diagsEnabled__C
86d89f60   ti_sysbios_family_c64p_Hwi_Module__diagsIncluded__C
86d89f64   ti_sysbios_family_c64p_Hwi_Module__diagsMask__C
86d89f68   ti_sysbios_family_c64p_Hwi_Module__loggerFxn1__C
86d89f6c   ti_sysbios_family_c64p_Hwi_Module__loggerFxn8__C
86d89f70   ti_sysbios_family_c64p_Hwi_Module__loggerObj__C
86d89f74   ti_sysbios_family_c64p_Hwi_Object__heap__C
86d89f78   ti_sysbios_gates_GateMutexPri_A_badContext__C
86d89f7c   ti_sysbios_gates_GateMutexPri_Instance_State_pendQ__O
86d89f80   ti_sysbios_gates_GateMutexPri_Module__diagsEnabled__C
86d89f84   ti_sysbios_gates_GateMutexPri_Module__diagsIncluded__C
86d89f88   ti_sysbios_gates_GateMutexPri_Module__diagsMask__C
86d89f8c   ti_sysbios_gates_GateMutex_A_badContext__C
86d89f90   ti_sysbios_gates_GateMutex_Instance_State_sem__O
86d89f94   ti_sysbios_gates_GateMutex_Module__diagsEnabled__C
86d89f98   ti_sysbios_gates_GateMutex_Module__diagsIncluded__C
86d89f9c   ti_sysbios_gates_GateMutex_Module__diagsMask__C
86d89fa0   ti_sysbios_gates_GateSwi_A_badContext__C
86d89fa4   ti_sysbios_gates_GateSwi_Module__diagsEnabled__C
86d89fa8   ti_sysbios_gates_GateSwi_Module__diagsIncluded__C
86d89fac   ti_sysbios_gates_GateSwi_Module__diagsMask__C
86d89fb0   ti_sysbios_heaps_HeapMem_A_align__C
86d89fb4   ti_sysbios_heaps_HeapMem_A_heapSize__C
86d89fb8   ti_sysbios_heaps_HeapMem_A_invalidFree__C
86d89fbc   ti_sysbios_heaps_HeapMem_A_zeroBlock__C
86d89fc0   ti_sysbios_heaps_HeapMem_E_memory__C
86d89fc4   ti_sysbios_heaps_HeapMem_Module__diagsEnabled__C
86d89fc8   ti_sysbios_heaps_HeapMem_Module__diagsIncluded__C
86d89fcc   ti_sysbios_heaps_HeapMem_Module__diagsMask__C
86d89fd0   ti_sysbios_heaps_HeapMem_Module__gateObj__C
86d89fd4   ti_sysbios_heaps_HeapMem_Object__count__C
86d89fd8   ti_sysbios_heaps_HeapMem_reqAlign__C
86d89fdc   ti_sysbios_knl_Clock_A_badThreadType__C
86d89fe0   ti_sysbios_knl_Clock_LM_begin__C
86d89fe4   ti_sysbios_knl_Clock_LM_tick__C
86d89fe8   ti_sysbios_knl_Clock_LW_delayed__C
86d89fec   ti_sysbios_knl_Clock_Module_State_clockQ__O
86d89ff0   ti_sysbios_knl_Clock_Module__diagsEnabled__C
86d89ff4   ti_sysbios_knl_Clock_Module__diagsIncluded__C
86d89ff8   ti_sysbios_knl_Clock_Module__diagsMask__C
86d89ffc   ti_sysbios_knl_Clock_Module__loggerFxn1__C
86d8a000   ti_sysbios_knl_Clock_Module__loggerFxn2__C
86d8a004   ti_sysbios_knl_Clock_Module__loggerObj__C
86d8a008   ti_sysbios_knl_Clock_tickPeriod__C
86d8a00c   ti_sysbios_knl_Semaphore_A_badContext__C
86d8a010   ti_sysbios_knl_Idle_coreList__A
86d8a014   ti_sysbios_knl_Semaphore_A_noEvents__C
86d8a018   ti_sysbios_knl_Idle_funcList__A
86d8a01c   ti_sysbios_knl_Semaphore_A_overflow__C
86d8a020   ti_sysbios_knl_Semaphore_Instance_State_pendQ__O
86d8a024   ti_sysbios_knl_Semaphore_LM_pend__C
86d8a028   ti_sysbios_knl_Semaphore_LM_post__C
86d8a02c   ti_sysbios_knl_Semaphore_Module__diagsEnabled__C
86d8a030   ti_sysbios_knl_Semaphore_Module__diagsIncluded__C
86d8a034   ti_sysbios_knl_Semaphore_Module__diagsMask__C
86d8a038   ti_sysbios_knl_Semaphore_Module__loggerFxn2__C
86d8a03c   ti_sysbios_knl_Semaphore_Module__loggerFxn4__C
86d8a040   ti_sysbios_knl_Semaphore_Module__loggerObj__C
86d8a044   ti_sysbios_knl_Swi_A_badPriority__C
86d8a048   ti_sysbios_knl_Swi_LD_end__C
86d8a04c   ti_sysbios_knl_Swi_LM_begin__C
86d8a050   ti_sysbios_knl_Swi_LM_post__C
86d8a054   ti_sysbios_knl_Swi_Module__diagsEnabled__C
86d8a058   ti_sysbios_knl_Swi_Module__diagsIncluded__C
86d8a05c   ti_sysbios_knl_Swi_Module__diagsMask__C
86d8a060   ti_sysbios_knl_Swi_Module__loggerFxn1__C
86d8a064   ti_sysbios_knl_Swi_Module__loggerFxn4__C
86d8a068   ti_sysbios_knl_Swi_Module__loggerObj__C
86d8a06c   ti_sysbios_knl_Swi_Object__count__C
86d8a070   ti_sysbios_knl_Swi_Object__heap__C
86d8a074   ti_sysbios_knl_Swi_numConstructedSwis__C
86d8a078   ti_sysbios_knl_Task_A_badPriority__C
86d8a07c   ti_sysbios_knl_Task_A_badTaskState__C
86d8a080   ti_sysbios_knl_Task_A_badThreadType__C
86d8a084   ti_sysbios_knl_Task_A_badTimeout__C
86d8a088   ti_sysbios_knl_Task_A_noPendElem__C
86d8a08c   ti_sysbios_knl_Task_LD_block__C
86d8a090   ti_sysbios_knl_Task_LD_exit__C
86d8a094   ti_sysbios_knl_Task_LD_ready__C
86d8a098   ti_sysbios_knl_Task_LM_setPri__C
86d8a09c   ti_sysbios_knl_Task_LM_sleep__C
86d8a0a0   ti_sysbios_knl_Task_LM_switch__C
86d8a0a4   ti_sysbios_knl_Task_LM_yield__C
86d8a0a8   ti_sysbios_knl_Task_Module_State_inactiveQ__O
86d8a0ac   ti_sysbios_knl_Task_Module__diagsEnabled__C
86d8a0b0   ti_sysbios_knl_Task_Module__diagsIncluded__C
86d8a0b4   ti_sysbios_knl_Task_Module__diagsMask__C
86d8a0b8   ti_sysbios_knl_Task_Module__loggerFxn2__C
86d8a0bc   ti_sysbios_knl_Task_Module__loggerFxn4__C
86d8a0c0   ti_sysbios_knl_Task_Module__loggerObj__C
86d8a0c4   ti_sysbios_knl_Task_Object__count__C
86d8a0c8   ti_sysbios_knl_Task_Object__heap__C
86d8a0cc   ti_sysbios_knl_Task_allBlockedFunc__C
86d8a0d0   ti_sysbios_knl_Task_defaultStackHeap__C
86d8a0d4   ti_sysbios_knl_Task_defaultStackSize__C
86d8a0d8   ti_sysbios_knl_Task_numConstructedTasks__C
86d8a0dc   ti_sysbios_syncs_SyncSem_Module__diagsEnabled__C
86d8a0e0   ti_sysbios_syncs_SyncSem_Module__diagsIncluded__C
86d8a0e4   ti_sysbios_syncs_SyncSem_Module__diagsMask__C
86d8a0e8   ti_sysbios_timers_dmtimer_Timer_E_cannotSupport__C
86d8a0ec   ti_sysbios_timers_dmtimer_Timer_E_freqMismatch__C
86d8a0f0   ti_sysbios_timers_dmtimer_Timer_Module__diagsEnabled__C
86d8a0f4   ti_sysbios_timers_dmtimer_Timer_Module__diagsIncluded__C
86d8a0f8   ti_sysbios_timers_dmtimer_Timer_Module__diagsMask__C
86d8a0fc   ti_sysbios_timers_dmtimer_Timer_numTimerDevices__C
86d8a100   ti_sysbios_utils_Load_LS_cpuLoad__C
86d8a104   ti_sysbios_utils_Load_LS_hwiLoad__C
86d8a108   ti_sysbios_utils_Load_LS_swiLoad__C
86d8a10c   ti_sysbios_utils_Load_LS_taskLoad__C
86d8a110   ti_sysbios_utils_Load_Module_State_taskList__O
86d8a114   ti_sysbios_utils_Load_Module__diagsEnabled__C
86d8a118   ti_sysbios_utils_Load_Module__diagsIncluded__C
86d8a11c   ti_sysbios_utils_Load_Module__diagsMask__C
86d8a120   ti_sysbios_utils_Load_Module__loggerFxn1__C
86d8a124   ti_sysbios_utils_Load_Module__loggerFxn2__C
86d8a128   ti_sysbios_utils_Load_Module__loggerFxn4__C
86d8a12c   ti_sysbios_utils_Load_Module__loggerObj__C
86d8a130   ti_sysbios_utils_Load_postUpdate__C
86d8a134   ti_sysbios_utils_Load_windowInMs__C
86d8a138   ti_sysbios_xdcruntime_GateThreadSupport_Instance_State_gate__O
86d8a13c   xdc_runtime_Assert_E_assertFailed__C
86d8a140   xdc_runtime_Core_A_initializedParams__C
86d8a144   xdc_runtime_Core_Module__diagsEnabled__C
86d8a148   xdc_runtime_Core_Module__diagsIncluded__C
86d8a14c   xdc_runtime_Core_Module__diagsMask__C
86d8a150   xdc_runtime_Error_E_generic__C
86d8a154   xdc_runtime_Error_E_memory__C
86d8a158   xdc_runtime_Error_Module__diagsEnabled__C
86d8a15c   xdc_runtime_Error_Module__diagsIncluded__C
86d8a160   xdc_runtime_Error_Module__diagsMask__C
86d8a164   xdc_runtime_Error_Module__loggerFxn8__C
86d8a168   xdc_runtime_Error_Module__loggerObj__C
86d8a16c   xdc_runtime_Error_policy__C
86d8a170   xdc_runtime_Error_raiseHook__C
86d8a174   xdc_runtime_IGateProvider_Interface__BASE__C
86d8a178   xdc_runtime_IHeap_Interface__BASE__C
86d8a17c   xdc_runtime_IModule_Interface__BASE__C
86d8a180   xdc_runtime_Log_L_error__C
86d8a184   xdc_runtime_Memory_defaultHeapInstance__C
86d8a188   xdc_runtime_Startup_execImpl__C
86d8a18c   xdc_runtime_Startup_maxPasses__C
86d8a190   xdc_runtime_Startup_firstFxns__A
86d8a194   xdc_runtime_Startup_sfxnRts__C
86d8a198   xdc_runtime_Startup_lastFxns__A
86d8a19c   xdc_runtime_Startup_sfxnTab__C
86d8a1a0   xdc_runtime_SysMin_bufSize__C
86d8a1a4   xdc_runtime_SysMin_outputFunc__C
86d8a1a8   xdc_runtime_System_Module__gateObj__C
86d8a1ac   xdc_runtime_System_extendFxn__C
86d8a1b0   xdc_runtime_System_maxAtexitHandlers__C
86d8a1b4   xdc_runtime_Text_charTab__C
86d8a1b8   xdc_runtime_Text_nameEmpty__C
86d8a1bc   xdc_runtime_Text_nameStatic__C
86d8a1c0   xdc_runtime_Text_nameUnknown__C
86d8a1c4   xdc_runtime_Text_nodeTab__C
86d8a1c8   xdc_runtime_Text_visitRopeFxn__C
86d8a1cc   xdc_runtime_knl_ISync_Interface__BASE__C
86d8a1d0   ti_sdo_ipc_GateMP_Module__id__C
86d8a1d4   ti_sdo_ipc_GateMP_Module__loggerDefined__C
86d8a1d8   ti_sdo_ipc_Ipc_Module__id__C
86d8a1dc   ti_sdo_ipc_Ipc_generateSlaveDataForHost__C
86d8a1e0   ti_sdo_ipc_ListMP_Module__id__C
86d8a1e4   ti_sdo_ipc_MessageQ_Module__id__C
86d8a1e8   ti_sdo_ipc_MessageQ_Module__loggerDefined__C
86d8a1ec   ti_sdo_ipc_Notify_Module__id__C
86d8a1f0   ti_sdo_ipc_Notify_numLines__C
86d8a1f4   ti_sdo_ipc_Notify_reservedEvents__C
86d8a1f8   ti_sdo_ipc_SharedRegion_Module__id__C
86d8a1fc   ti_sdo_ipc_SharedRegion_numEntries__C
86d8a200   ti_sdo_ipc_SharedRegion_translate__C
86d8a204   ti_sdo_ipc_family_c6a8149_InterruptDsp_Module__id__C
86d8a208   ti_sdo_ipc_gates_GateHWSpinlock_Module__id__C
86d8a20c   ti_sdo_ipc_gates_GateHWSpinlock_Module__loggerDefined__C
86d8a210   ti_sdo_ipc_gates_GateMPSupportNull_Module__id__C
86d8a214   ti_sdo_ipc_gates_GatePeterson_Module__id__C
86d8a218   ti_sdo_ipc_heaps_HeapBufMP_Module__id__C
86d8a21c   ti_sdo_ipc_heaps_HeapBufMP_trackAllocs__C
86d8a220   ti_sdo_ipc_heaps_HeapMemMP_Module__id__C
86d8a224   ti_sdo_ipc_notifyDrivers_NotifyDriverShm_Module__id__C
86d8a228   ti_sdo_ipc_nsremote_NameServerRemoteNotify_Module__id__C
86d8a22c   ti_sdo_ipc_transports_TransportShm_Module__id__C
86d8a230   ti_sdo_ipc_transports_TransportShm_notifyEventId__C
86d8a234   ti_sdo_utils_MultiProc_Module__id__C
86d8a238   ti_sdo_utils_MultiProc_numProcessors__C
86d8a23c   ti_sdo_utils_MultiProc_numProcsInCluster__C
86d8a240   ti_sdo_utils_NameServer_Module__id__C
86d8a244   ti_sdo_utils_NameServer_singleProcessor__C
86d8a248   ti_sysbios_BIOS_Module__id__C
86d8a24c   ti_sysbios_family_c64p_EventCombiner_Module__id__C
86d8a250   ti_sysbios_family_c64p_Exception_Module__id__C
86d8a254   ti_sysbios_family_c64p_Hwi_Module__id__C
86d8a258   ti_sysbios_family_c64p_Hwi_Module__loggerDefined__C
86d8a25c   ti_sysbios_gates_GateMutexPri_Module__id__C
86d8a260   ti_sysbios_gates_GateMutex_Module__id__C
86d8a264   ti_sysbios_gates_GateSwi_Module__id__C
86d8a268   ti_sysbios_heaps_HeapMem_Module__id__C
86d8a26c   ti_sysbios_knl_Clock_Module__id__C
86d8a270   ti_sysbios_knl_Clock_Module__loggerDefined__C
86d8a274   ti_sysbios_knl_Semaphore_Module__id__C
86d8a278   ti_sysbios_knl_Semaphore_Module__loggerDefined__C
86d8a27c   ti_sysbios_knl_Swi_Module__id__C
86d8a280   ti_sysbios_knl_Swi_Module__loggerDefined__C
86d8a284   ti_sysbios_knl_Task_Module__id__C
86d8a288   ti_sysbios_knl_Task_Module__loggerDefined__C
86d8a28c   ti_sysbios_knl_Task_initStackFlag__C
86d8a290   ti_sysbios_syncs_SyncSem_Module__id__C
86d8a294   ti_sysbios_timers_dmtimer_Timer_Module__id__C
86d8a298   ti_sysbios_timers_dmtimer_Timer_checkFrequency__C
86d8a29c   ti_sysbios_timers_dmtimer_Timer_startupNeeded__C
86d8a2a0   ti_sysbios_utils_Load_Module__id__C
86d8a2a4   ti_sysbios_utils_Load_Module__loggerDefined__C
86d8a2a8   ti_sysbios_utils_Load_autoAddTasks__C
86d8a2ac   ti_sysbios_utils_Load_hwiEnabled__C
86d8a2b0   ti_sysbios_utils_Load_swiEnabled__C
86d8a2b4   ti_sysbios_utils_Load_taskEnabled__C
86d8a2b8   ti_sysbios_utils_Load_updateInIdle__C
86d8a2bc   xdc_runtime_Core_Module__id__C
86d8a2c0   xdc_runtime_Error_Module__loggerDefined__C
86d8a2c4   xdc_runtime_Error_maxDepth__C
86d8a2c8   xdc_runtime_Memory_Module__id__C
86d8a2cc   xdc_runtime_SysMin_flushAtExit__C
86d8a2d0   xdc_runtime_Text_charCnt__C
86d8a2d4   xdc_runtime_Text_isLoaded__C
86d8a2d8   xdc_runtime_Text_registryModsLastId__C
86d8a2dc   xdc_runtime_Text_unnamedModsLastId__C
86d8a2e0   __CIOBUF_
86d8a400   ti_sysbios_family_c64p_Hwi0
86d8a400   ti_sysbios_family_c64p_Hwi_int0
86d8a420   ti_sysbios_family_c64p_Hwi_int1
86d8a440   ti_sysbios_family_c64p_Hwi_int2
86d8a460   ti_sysbios_family_c64p_Hwi_int3
86d8a480   ti_sysbios_family_c64p_Hwi_int4
86d8a4a0   ti_sysbios_family_c64p_Hwi_int5
86d8a4c0   ti_sysbios_family_c64p_Hwi_int6
86d8a4e0   ti_sysbios_family_c64p_Hwi_int7
86d8a500   ti_sysbios_family_c64p_Hwi_int8
86d8a520   ti_sysbios_family_c64p_Hwi_int9
86d8a540   ti_sysbios_family_c64p_Hwi_int10
86d8a560   ti_sysbios_family_c64p_Hwi_int11
86d8a580   ti_sysbios_family_c64p_Hwi_int12
86d8a5a0   ti_sysbios_family_c64p_Hwi_int13
86d8a5c0   ti_sysbios_family_c64p_Hwi_int14
86d8a5e0   ti_sysbios_family_c64p_Hwi_int15
86d8b000   __TI_STATIC_BASE
86d9a060   pt_externalMemory
86d9a064   saladbowlFocalLength
86d9a068   hSemaCpyDone
86d9a06c   counter_get0_1
86d9a070   dataFormat
86d9a074   Output_GridSize
86d9a078   Input_GridSize
86d9a07c   inpersmatPtr
86d9a080   GPtr1
86d9a084   inGALUTPtr
86d9a088   GPtr2
86d9a08c   inGALUTreminderPtr
86d9a090   PPtr3
86d9a094   outStatLUTPtr
86d9a098   PPtr4
86d9a09c   pPAlignOutPtr
86d9a0a0   control_cmd
86d9a0a4   control_set_value
86d9a0a8   control_get_value
86d9a0ac   svSynthesisAlgHandle
86d9a0b0   svSHandle
86d9a0b4   svPAlignAlgHandle
86d9a0b8   svPHandle
86d9a0bc   svGAlignAlgHandle
86d9a0c0   svGHandle
86d9a0e0   gEdma_ChId
86d9a0e4   gTcc
86d9a0e8   memRearCamAfterFishEyeCorrection
86d9a0f0   dsp_num
86d9a0f4   region_id
86d9a0f8   car_yuv_len
86d9a0fc   car6_out_yuv_len
86d9a100   yuv_bar_yuv_len
86d9a104   yuv_bar_h_yuv_len
86d9a108   yuv_car_yuv_len
86d9a10c   yuv_menu_colab_clb_yuv_len
86d9a110   yuv_menu_colab_clb_h_yuv_len
86d9a114   yuv_colab_wp_yuv_len
86d9a118   yuv_colab_wp_h_yuv_len
86d9a11c   yuv_menu_adv_yuv_len
86d9a120   yuv_menu_adv_h_yuv_len
86d9a124   yuv_menu_cola_yuv_len
86d9a128   yuv_menu_cola_h_yuv_len
86d9a12c   yuv_menu_param_yuv_len
86d9a130   yuv_menu_param_h_yuv_len
86d9a134   yuv_menu_upd_yuv_len
86d9a138   yuv_menu_upd_h_yuv_len
86d9a13c   yuv_menu_photo_yuv_len
86d9a140   yuv_menu_photo_h_yuv_len
86d9a144   yuv_ret_err_yuv_len
86d9a148   yuv_ret_ok_yuv_len
86d9a14c   yuv_sep_yuv_len
86d9a150   yuv_tip_yuv_len
86d9a154   yuv_title_adv_yuv_len
86d9a158   yuv_title_colab_yuv_len
86d9a15c   yuv_title_menu_yuv_len
86d9a160   yuv_title_param_yuv_len
86d9a164   yuv_title_upg_yuv_len
86d9a168   yuv_left_yuv_len
86d9a16c   yuv_right_yuv_len
86d9a170   yuv_front_yuv_len
86d9a174   yuv_back_yuv_len
86d9a178   yuv_warn_yuv_len
86d9a17c   yuv_notice1_yuv_len
86d9a180   yuv_notice2_yuv_len
86d9a184   yuv_num1_yuv_len
86d9a188   yuv_num2_yuv_len
86d9a18c   yuv_m1_yuv_len
86d9a190   yuv_m2_yuv_len
86d9a194   yuv_g0_yuv_len
86d9a198   yuv_g1_yuv_len
86d9a19c   yuv_g2_yuv_len
86d9a1a0   yuv_g3_yuv_len
86d9a1a4   yuv_g4_yuv_len
86d9a1a8   yuv_g5_yuv_len
86d9a1ac   yuv_g6_yuv_len
86d9a1b0   yuv_g7_yuv_len
86d9a1b4   yuv_g8_yuv_len
86d9a1b8   yuv_g9_yuv_len
86d9a1bc   yuv_gdot_yuv_len
86d9a1c0   yuv_red0_yuv_len
86d9a1c4   yuv_red1_yuv_len
86d9a1c8   yuv_red2_yuv_len
86d9a1cc   yuv_red3_yuv_len
86d9a1d0   yuv_red4_yuv_len
86d9a1d4   yuv_red5_yuv_len
86d9a1d8   yuv_red6_yuv_len
86d9a1dc   yuv_red7_yuv_len
86d9a1e0   yuv_red8_yuv_len
86d9a1e4   yuv_red9_yuv_len
86d9a1e8   yuv_reddot_yuv_len
86d9a1ec   firstSetOfFramesReady
86d9a1f0   ToProcessOneSet
86d9a1f4   DoneProcessedOneSet
86d9a1f8   mySentToA8Counter
86d9a1fc   ChInfoFromA8
86d9a1fe   InfoSwmsLayout
86d9a200   badcounter
86d9a204   debugStopFlag
86d9a208   pVideoBuf_Synthesis
86d9a20c   pVideoBuf_Front
86d9a210   pVideoBuf_Left
86d9a214   pVideoBuf_Right
86d9a218   pVideoBuf_Rear
86d9a228   pCurPage
86d9a22c   pNextPage
86d9a230   pParentPage
86d9a288   externalMemory
86d9a28c   frameBuffer0
86d9a290   frameBuffer1
86d9a294   frameBuffer2
86d9a298   frameBuffer3
86d9a29c   outputBuffer
86d9a2a0   SynthesisBuffer
86d9a2a4   counter_get0_1_freq
86d9a2a8   triggerGA
86d9a2ac   lensModel
86d9a2bc   pMemSt
86d9a2c0   pMemTail
86d9a2c4   pMemCur
86d9a2c8   pMemAlloc
86d9a2cc   resMgrInstance
86d9a2d0   userInitConfig
86d9a2d4   ptrRMIArray
86d9a2d8   ptrInitCfgArray
86d9a2dc   irqRaised1
86d9a2f0   edma3NumPaRAMSets
86d9a2f8   Syslink_terminateEventId
86d9a2fc   Syslink_terminateEventLineId
86d9a318   numEdma3Instances
86d9a31c   numDsps
86d9a320   EDMA3_MAX_RM_INSTANCES
86d9a328   _stack
86d9e328   __TI_STACK_END
87000000   ti_sysbios_heaps_HeapMem_Instance_State_0_buf__A
ffffffff   __TI_pprof_out_hndl
ffffffff   __TI_prof_data_size
ffffffff   __TI_prof_data_start
ffffffff   __binit__
ffffffff   __c_args__
ffffffff   binit
UNDEFED    __TI_CINIT_Base
UNDEFED    __TI_CINIT_Limit
UNDEFED    __TI_Handler_Table_Base
UNDEFED    __TI_Handler_Table_Limit
UNDEFED    __TI_INITARRAY_Base
UNDEFED    __TI_INITARRAY_Limit

[1925 symbols]


DYNAMIC SYMBOLS: SORTED ALPHABETICALLY BY Name 

address    name
--------   ----
UNDEFED    
86d77730   TSK_idle
85c00400   _Ipc_ResetVector
86d9e328   __TI_STACK_END
00004000   __TI_STACK_SIZE
86d8b000   __TI_STATIC_BASE
ffffffff   __TI_pprof_out_hndl
ffffffff   __TI_prof_data_size
ffffffff   __TI_prof_data_start
ffffffff   __binit__
ffffffff   __c_args__
00000000   _argsize
ffffffff   binit
00000001   xdc_runtime_Startup__EXECFXN__C
00000001   xdc_runtime_Startup__RESETFXN__C

[15 symbols]


IMPORTED and EXPORTED SYMBOLS: SORTED ALPHABETICALLY BY Name 

IMPORTED SYMBOLS

name                           size      Imported from
-----------------------------  --------  -------------

[0 symbols]


EXPORTED SYMBOLS

address    name
--------   ----
85c00400   _Ipc_ResetVector
